(lp0
F1.3997971713943977
aF1.5533194194349809
aF1.0647951167095484
aF1.616199214594793
aF2.0727160978018686
aF1.5180807841721937
aF1.0178744806662667
aF1.0368224240706236
aF1.2142631399955128
aF5.672374638027718
aF3.779752056523272
aF2.5267173989153875
aF1.1803526364026595
aF1.4160236088538931
aF1.2143136459625734
aF1.4651143861410643
aF1.0901533936875618
aF1.0856440475907183
aF2.466997834014966
aF5.4678367097883145
aF2.023831708813322
aF1.6825694317503592
aF2.1823748989513847
aF1.1457129967195157
aF1.3635596352534196
aF1.196571047507222
aF1.012271913561148
aF1.0575518581379453
aF1.006283710420366
aF1.4221905018336392
aF1.706754916363766
aF1.1793142091731799
aF1.00905357393633
aF1.0004610258310491
aF2.0606263307850883
aF1.0222715469338608
aF4.679488122765217
aF4.417335145151496
aF1.0955249751517673
aF1.0902045209143225
aF2.879592771263475
aF1.6249917171748234
aF1.1547787182581277
aF11.152279684656662
aF1.295622174236522
aF7.49270602443209
aF2.0906722011623073
aF1.0801879487145924
aF1.4014177645047672
aF1.2887046946041107
aF1.7189406288991722
aF1.2142631399955128
aF1.6462206864588311
aF1.8655789583409321
aF1.0145462608992981
aF2.4026694769604098
aF1.0190193794466587
aF1.0011450757754414
aF1.4714006104653292
aF1.2918092238932324
aF2.149058825005787
aF3.2953874399147525
aF1.0405967869172565
aF1.0002124618017094
aF1.2689593543488087
aF1.8727715303920642
aF1.022200808763579
aF1.608360858592954
aF1.6299034926974822
aF1.978956667373261
aF1.015672928195676
aF1.0577307817636374
aF1.0591981759376754
aF1.088133971706262
aF1.1724910195089049
aF1.2991147018821065
aF1.0699058062493056
aF1.0139644410588124
aF1.6211283544184063
aF1.1215922480222325
aF1.4403962796427003
aF1.818082117845862
aF1.013428218500832
aF1.0410028523402106
aF1.399724793066624
aF1.6522251565902273
aF2.7640169927180063
aF1.5902114895785586
aF1.9658377235364926
aF1.0140321857206929
aF1.006479628627603
aF1.4164077025718487
aF1.0197639432393784
aF1.0863496848346605
aF1.5313706461121086
aF1.0012653775418112
aF1.454082780327285
aF1.5623592446133547
aF4.296699018178455
aF1.8664334502607158
aF1.3118613334583122
aF1.9567694935950453
aF1.2647754853464388
aF2.524588020843062
aF1.3900946677008876
aF1.4388387510153502
aF2.3289678325548064
aF1.0000150902061686
aF1.1941119855735542
aF2.827737108446436
aF1.051153285650189
aF1.2521954677285048
aF3.6407836266083162
aF3.9541180915586507
aF1.3803135471843762
aF4.353817223222789
aF1.0136787533928764
aF5.061758717295871
aF1.0889885582463774
aF1.1657336087816854
aF3.218361601431663
aF1.0401943148566584
aF1.0036604085722973
aF5.0563705593355515
aF1.136129986574368
aF2.1500594249848906
aF1.069263989815036
aF1.0375201783728465
aF1.1824945456334988
aF2.447514776625637
aF1.3733177465296385
aF4.1742749390150715
aF1.0329363069091575
aF1.7457770266615682
aF2.703528951921291
aF1.4382249703210237
aF1.0080481012351348
aF2.1729457220495494
aF1.197685615873492
aF1.1524589848921478
aF1.1429067868834468
aF1.6999230959449958
aF1.052806760563424
aF1.0177553298034128
aF1.0264541088152028
aF1.849476473317387
aF3.0031992332918263
aF1.0133160781750326
aF2.9273100639537013
aF1.4039658202453338
aF1.8560520121946396
aF2.84052670240226
aF1.1694626399212806
aF1.1376642354410118
aF1.3020219502015231
aF1.02535199626413
aF1.76412439316226
aF1.1582468477450052
aF1.7650052421116011
aF1.010557383920827
aF1.0380868333690056
aF1.4154871449682351
aF1.0552738221504958
aF1.5247528247753945
aF1.4609484533394694
aF1.1299890829755084
aF2.0251397823610504
aF3.6289458997064306
aF1.283516760640013
aF3.447900424034574
aF1.9181144004540465
aF1.1153228471935444
aF1.0062548136848721
aF1.7642776991650526
aF1.1989185643148288
aF1.10094338613277
aF2.596666421072504
aF1.0160713985771432
aF1.2123363804220066
aF2.5485856509665625
aF1.392257275382911
aF3.319955584943175
aF1.591033340947561
aF3.1184726053863123
aF1.0863622927654137
aF1.9764640384429115
aF3.8385102671684814
aF3.8106824682968465
aF1.2044022294268757
aF2.615544004332177
aF6.490607057362728
aF1.0136508627126417
aF2.0757204118467
aF1.0021893375344881
aF1.0055341183697453
aF1.6980281558170314
aF2.243114179978307
aF1.058392906295282
aF1.0831599181325275
aF2.0981119606641183
aF3.6767111433470405
aF1.0026091367441845
aF1.9713701072730907
aF1.0925655483755534
aF1.0560197763310157
aF1.4048769213168393
aF1.6618441079642408
aF1.634209160398738
aF1.3308353161773299
aF6.8468805400050865
aF1.704444195281192
aF1.7928620675495466
aF1.886249963413952
aF1.4505267340295114
aF1.9470992245192267
aF1.0835563177268743
aF3.034611929020302
aF1.0011450757754414
aF1.8962410976312207
aF1.1962950660132943
aF1.0953283302841688
aF1.1232250683739973
aF1.148354042297227
aF1.1486642047398001
aF1.2749934793791027
aF1.0569748390098317
aF1.242210906487547
aF1.9402979891377017
aF1.2374044288650063
aF9.374139245972886
aF1.0763732608598189
aF4.980518931890401
aF1.0130633676866379
aF1.0510045815489657
aF1.6665169788386658
aF1.1813459129521113
aF1.066747800942161
aF1.0362206310399715
aF1.0877770172973233
aF1.016393805964664
aF1.99449303921191
aF2.0074350964972965
aF1.0070582917480735
aF1.095792158562426
aF1.0040502603584838
aF2.396071262638443
aF1.7574368111044945
aF1.7882063033337054
aF2.6863468742256074
aF1.5134795735228386
aF1.0768850541311357
aF1.1373769531192675
aF1.0010439683256065
aF3.0424923303235105
aF1.1659276115212431
aF1.8027284101887473
aF5.064161125703504
aF3.857553149726146
aF1.5604746791277004
aF1.1573175293154436
aF2.1384913892305506
aF1.7588582610175554
aF1.3572858915184414
aF2.1068843181847936
aF1.005769278990948
aF2.286415270054848
aF1.0227087777734907
aF1.193100472908938
aF1.0045097807256427
aF2.187828280727917
aF1.418841242085708
aF1.9704521047611374
aF1.1786226702177311
aF2.2045399848679796
aF1.0514710000666871
aF2.417247006975087
aF2.455359926218002
aF3.5476544864962483
aF15.377279115309353
aF1.3866292151209776
aF1.0174170736078414
aF1.5759116569690967
aF3.4820151274778572
aF1.1387007291790492
aF2.7582365735448655
aF1.1268330414871888
aF3.0097353788302157
aF2.3289777228122985
aF1.0261734109559282
aF4.837534875004422
aF1.0611581835944175
aF2.60043392747827
aF1.25325951587801
aF1.0803378168336577
aF2.2182577414078017
aF2.871626994348849
aF2.2645881050901338
aF2.7334242001796936
aF1.3707594619716241
aF1.3247448935912476
aF1.054923397756214
aF1.0933245789095916
aF1.0963979109015014
aF1.185281794554609
aF1.0190276074740099
aF1.2034747647726485
aF1.0327569503576575
aF1.0278133237995386
aF9.16266026606898
aF1.0097886431597014
aF1.0025782186096721
aF1.9415253358806097
aF2.498254022363453
aF1.06266621595282
aF1.8352924582970769
aF1.0770788068013233
aF1.4408637574172107
aF1.3319513509513592
aF1.0061353759236298
aF1.6702957381788939
aF1.5694743102347966
aF2.646110023424427
aF1.7824313818198079
aF1.4183272137930658
aF1.1617029851459462
aF1.105911472871248
aF1.004277807782882
aF1.042739439066147
aF3.967113327638872
aF1.0086391368087473
aF1.4202519890159642
aF1.2163002831886904
aF1.1187209092249204
aF1.470989103519126
aF1.2185236369639834
aF1.0060972369008474
aF1.743952270998558
aF2.6327602039866824
aF1.061420690618905
aF1.1761937348344742
aF2.684172887168275
aF1.0604687602431428
aF1.1197554192110668
aF1.1835420943185329
aF1.0351722356017152
aF1.197532695158409
aF1.862687016902119
aF1.0276338654988468
aF1.064371877780544
aF1.0676645111736285
aF1.3391014094009432
aF1.045818703016202
aF1.2790284456308958
aF1.1612295925773894
aF1.3454252266092572
aF2.228531894172671
aF1.0044672256182658
aF2.2258697097460436
aF3.2516668222497893
aF1.0159448403289495
aF2.874795080981571
aF1.3258802267739778
aF1.517218261079428
aF1.1168261061670561
aF2.708454261291632
aF1.045623487854399
aF1.9752147529130606
aF2.7769501033690793
aF3.142963786107371
aF1.0051609278144296
aF1.1280166621486851
aF1.1848138660567695
aF2.899251203097658
aF3.0911790341736918
aF1.1763082828330074
aF1.3897437421365508
aF1.012197033984255
aF1.0514710000666871
aF1.0262280199036402
aF1.6867963005321613
aF2.2792550177157964
aF1.3480968854099584
aF1.8870423870759903
aF1.4254847496330534
aF1.0040502603584838
aF1.1739401460700545
aF3.585485366533722
aF5.696080334177997
aF1.7810800341488613
aF2.526595330620933
aF2.688470369350998
aF2.1418724619533434
aF4.539153844143074
aF3.8422182333102906
aF1.245239767376782
aF1.2984205465748693
aF1.09766121193308
aF1.4393521139093208
aF1.6322797429301055
aF1.399134192382938
aF2.2322453201984676
aF1.3573028567808083
aF1.0004357950349627
aF1.6717202768792336
aF1.064414867082756
aF2.9573429775200855
aF2.3107928279320196
aF1.08398678211074
aF1.0134097844109842
aF2.211886549754422
aF1.0663946590945568
aF3.9294712324122822
aF1.5518793705763099
aF1.3677592146856636
aF1.0155716677284017
aF1.0064021607907663
aF1.4949342079439574
aF1.7299866449467434
aF1.0177781479012218
aF1.0828698961175396
aF1.3984753685927074
aF2.0494139078491638
aF1.0251051912196256
aF1.0068963957031267
aF1.2106921880683477
aF1.2921573075573596
aF1.0015479828497202
aF1.5854655320914988
aF1.2669506442183343
aF2.61441392585254
aF1.4188236128414398
aF1.875250191936472
aF1.0039941520622278
aF7.926380285638781
aF1.3041202847083773
aF1.185197901358433
aF1.007270166422195
aF1.1101168671864108
aF1.1866569926239425
aF1.1403756756430745
aF4.3695096168423895
aF1.1079050590156931
aF1.1446240549974454
aF2.714053130036079
aF3.0924652279105658
aF2.5894780029001545
aF1.2974922078705982
aF1.8482198404743782
aF1.6069356927450638
aF1.0530143556030616
aF1.1564501955281363
aF1.0318889482816664
aF1.1370523678094793
aF1.3460950219721453
aF2.6509663657186864
aF1.0637424717534727
aF1.8931359997343693
aF2.1383748667294173
aF4.381245118930482
aF1.2123363804220066
aF1.6088893870817966
aF1.3165022265373305
aF1.392012352684184
aF1.2944721033976008
aF1.0171147137751337
aF1.0852180511707823
aF2.680284690355443
aF5.347254790168598
aF1.7495434830877032
aF1.740624714101883
aF1.8867474306989407
aF1.0824830507984005
aF3.5803844349506315
aF3.5375206882625756
aF1.4317151738548268
aF1.0330756064808764
aF10.797382093157173
aF1.2189695461037853
aF1.679619617543293
aF1.2691085772568802
aF1.0251574771679886
aF1.3533469901903856
aF1.412287906200277
aF1.3558168125236751
aF2.0429369344153168
aF2.990785338325153
aF7.4733875835996235
aF3.971178125665585
aF3.6862506471629626
aF1.460272396173222
aF1.045543557055496
aF1.9390753384935382
aF2.0606263307850883
aF1.4387628689009075
aF4.718459626514922
aF1.1057419249294553
aF1.2654968700121088
aF1.008124394896398
aF1.009322202292549
aF1.0033745756839587
aF1.6374288404842756
aF1.0007258660241123
aF1.1102664770989719
aF1.0039197634498738
aF2.8301734116318213
aF1.05848633181906
aF1.1151146405174
aF1.0761454785873934
aF1.1868272721207864
aF1.4021442314757062
aF1.460272396173222
aF2.91280343582043
aF2.767223349390728
aF1.4334471207586112
aF1.2376979947442457
aF1.6614742116590682
aF1.3308353161773299
aF1.2348565157377707
aF1.484187331965276
aF10.660184421567608
aF1.048607276905986
aF1.0491504548875714
aF1.7892368213489336
aF1.7639999485002795
aF3.413078232075425
aF1.007136823732853
aF2.976608669457599
aF1.173737329494957
aF1.444882912444508
aF1.0852289581811632
aF1.7714065045128062
aF1.808797744169231
aF1.4908059196973649
aF2.4500159636314094
aF1.016461706066329
aF2.6396283474387228
aF1.4778515190132797
aF1.1081113889153034
aF1.1817949220296415
aF1.0190856018481977
aF1.4053382091271365
aF1.004138948365417
aF1.4238201111048148
aF1.0721288354457097
aF1.1432257437088118
aF1.0886747072536502
aF1.1763786201013298
aF1.086741497529675
aF2.0629823882467315
aF3.6139792944820126
aF5.814615915948843
aF1.1101525808489134
aF2.7299587372290843
aF1.6078562178841838
aF1.161985785803849
aF1.201435317808606
aF1.8308826855308273
aF1.844931600272824
aF1.0202290475158586
aF1.0085392781448452
aF2.690751871318345
aF1.0011487098369831
aF1.1612276531835435
aF3.5572465035872702
aF1.5093018682078483
aF2.909978546350772
aF1.2028562982596165
aF1.8971283554142793
aF2.7261091579711727
aF1.0160966134679947
aF1.010833320213349
aF1.1931168865832433
aF2.1134197797982894
aF1.002750302759914
aF1.0906837507222629
aF1.1128541277452213
aF1.0160966134679947
aF1.3483348389834107
aF1.0245204961750747
aF1.8306276526692833
aF1.3552218992813887
aF1.1624133690385623
aF1.0130239607850067
aF1.0064606340151916
aF1.3450089283126339
aF2.0827290341676
aF1.1258316797390626
aF1.2702804435291037
aF1.0078475665027218
aF1.0669865427977872
aF1.4973050050788186
aF1.0049563135631334
aF1.0057791244875818
aF1.209323111191892
aF2.6385538965036424
aF1.1392079000288104
aF2.224580736121979
aF2.03818533530537
aF1.51358961250875
aF1.4588908569211891
aF1.0015479828497202
aF1.0323835278535454
aF1.2324386313943636
aF1.0132149226224272
aF1.5627377298607292
aF1.7042038535474138
aF5.120071669010067
aF2.4026694769604098
aF1.0862136097946906
aF1.9560341429213812
aF1.263861844554984
aF1.1261414243951824
aF1.4297128733315476
aF1.4188236128414398
aF1.550227528534907
aF2.4457930869282323
aF1.0932992776785804
aF1.2948464769475354
aF2.933309013682011
aF1.4098942054346506
aF1.6218129986934353
aF1.2119860424940925
aF3.601757439932863
aF1.0635403942661261
aF1.0899909888702806
aF1.2417656434397515
aF1.3070644284315216
aF1.1229844885427234
aF1.501103513233263
aF1.0311551783283148
aF1.337772223951092
aF1.086109061994007
aF1.00098579320709
aF1.2732336133846023
aF4.850952514672359
aF2.0645514677331547
aF5.1786406530749485
aF3.43772454635764
aF1.055065959236284
aF1.033667419934078
aF2.960573225323725
aF1.0539620400975356
aF5.566034351081111
aF1.0171820846820294
aF1.7309234652384615
aF1.4194705069701092
aF1.5450357904786924
aF2.090940057738387
aF1.0383883550765138
aF1.0196626193537004
aF3.318042416827744
aF1.3527743804938717
aF1.964358366390504
aF1.022433910714305
aF2.195435797067189
aF1.4013036062390767
aF1.6728596276862933
aF1.0386495148390618
aF3.69172097463909
aF1.4380338339956853
aF1.008290948953181
aF1.0196626193537004
aF1.1022471896152075
aF2.847743887781029
aF2.2716057826299134
aF1.0044053113447364
aF1.2379528790178356
aF1.0566069581662678
aF1.748085506342963
aF1.217214322660887
aF1.2029302426870396
aF1.6630072039242398
aF23.183954873829606
aF1.1288792650033277
aF1.2335618181275165
aF1.0143949871024869
aF1.071397517742857
aF1.3158946815852426
aF1.6060598575966012
aF1.2364042925369934
aF2.076449491515829
aF3.068733401730624
aF2.293883211571632
aF2.694200675615735
aF1.295622174236522
aF2.4084340292551514
aF1.0004610258310491
aF2.8645179517230743
aF1.0224525637761794
aF1.015128101267603
aF1.003761802063551
aF1.0579496105541433
aF1.305334327563584
aF1.2670746327635853
aF2.6488029609575143
aF1.4792841080658623
aF1.2230133244726218
aF3.030203564175083
aF2.3235905117272586
aF1.016818726774384
aF1.0114193987827418
aF1.499544138061573
aF1.1697909407788614
aF1.1232250683739973
aF3.8142818423772042
aF2.4800720058719574
aF1.3849235628043033
aF1.186051103089703
aF1.3278820510565617
aF1.4138317873374706
aF1.0345477986061362
aF1.0533211277697618
aF3.74214713287507
aF1.1424098470725705
aF3.3603580614993733
aF6.413385139378232
aF1.1448410216529785
aF1.721110830395261
aF1.109110984221937
aF1.6774338916661078
aF1.1315698575249973
aF1.640036941534876
aF5.968302396383662
aF2.2516162185192874
aF1.3134340935467301
aF2.192112412104233
aF1.146551273381757
aF1.0014416922351494
aF8.700341669711953
aF1.6086521963053833
aF27.456573107408822
aF1.4654277418956057
aF3.076792130663727
aF1.3638474145974995
aF1.0407718135931332
aF2.187041746292962
aF2.6376541042392914
aF1.3523775613568247
aF1.2987873766707843
aF1.2900301169881678
aF5.375350501412102
aF1.0366841581090538
aF1.0513745326708093
aF1.1135140771403536
aF1.4177111800314943
aF2.6750763486853413
aF3.074383137902913
aF1.1716539370949939
aF1.0298090661775388
aF2.2015967856882526
aF1.4178697738581107
aF1.4183272137930658
aF1.0517893243605565
aF6.741154483422159
aF1.0329751815285806
aF1.7181768776451845
aF2.805451570083305
aF1.394706034071989
aF1.5712094115900472
aF1.8446666346155254
aF1.0042302859836847
aF1.9604289248772402
aF1.5597277607245705
aF1.0557075613478262
aF2.885196179106109
aF1.6630072039242398
aF1.01365238506879
aF2.8269007242716517
aF1.4800758609418216
aF4.678319699173884
aF1.0093772678518114
aF1.0150672436481925
aF1.1196885496558964
aF1.0080367004043067
aF1.0147658278186023
aF3.4049232123347313
aF1.0218556328954136
aF1.3176240705852138
aF1.8605136322056992
aF4.517859780302481
aF1.1324441004649608
aF2.506123921378558
aF4.718172340910788
aF1.7397629528256797
aF3.7312833406612333
aF1.122108678954396
aF2.6699575885001403
aF1.0249607266490675
aF2.1234389542475363
aF1.0157332037302231
aF1.244246264894848
aF1.3249210079815381
aF1.297475146095954
aF6.986662544294918
aF1.237106177774174
aF1.586730016819451
aF1.0693745688408627
aF1.2946945098483602
aF1.5494132132532354
aF2.9769975925157643
aF1.9196189481167603
aF6.0512400855242765
aF1.2140877467590356
aF2.0502878149396806
aF1.382177434430957
aF1.0359115234927014
aF1.6446567603614086
aF1.4871328625943188
aF1.7078339971891126
aF1.327746214731443
aF2.1426451137819122
aF1.0020700211263314
aF3.238236430796774
aF2.3098629355531446
aF1.0439808111762183
aF1.0377166724656275
aF1.2078375615973111
aF32.75123120294912
aF1.5452192255882353
aF1.4565562344521648
aF1.1366951692916574
aF2.8213774776852922
aF3.799899104595348
aF3.0454352891790424
aF1.152317001491601
aF1.4714006104653292
aF1.1228191158736984
aF2.7654246179407713
aF2.679219474412504
aF1.0222785026542378
aF1.0006322936430323
aF2.6857847746815375
aF1.573862711842994
aF1.0125388392024433
aF1.9109441098956912
aF1.0009830495491907
aF1.485037477589708
aF1.2853842862471123
aF1.6047853574043718
aF1.7130622222859142
aF1.047019658603033
aF1.426653826030656
aF1.0596337311160462
aF1.012884733996782
aF1.2183142276574135
aF1.0242128103082164
aF2.608332615962871
aF1.6618441079642408
aF1.1466363163661468
aF6.903337356750109
aF1.5959607815272743
aF1.4952136560384497
aF1.0921945974558693
aF1.0043308922684913
aF1.4555177581492136
aF2.0903752720232798
aF2.342830836966112
aF2.138864473832097
aF1.118197632179934
aF1.5401979952784128
aF1.0492781789119017
aF1.3407228034828347
aF2.209468522379121
aF1.710071557909389
aF1.381726979480271
aF4.077875279172045
aF1.8490172098952948
aF5.317250254667069
aF1.4167965861308462
aF1.8166440059334892
aF1.0375201783728465
aF2.702880062662057
aF3.3282315713296975
aF1.011591051252956
aF3.1271188809140544
aF1.2577983351705533
aF1.000969798300257
aF1.0266748296903916
aF1.8417314647825498
aF3.0314293513009005
aF1.1127291824702905
aF5.401691276020059
aF2.2410165744113955
aF1.0765902704592525
aF1.5411900351653265
aF1.0401061987710947
aF1.2387339297139428
aF1.0516184593991695
aF1.092588942388097
aF1.1726138790333347
aF5.342037045062699
aF1.6136677539741742
aF1.039840071743766
aF1.0777681342200771
aF2.0918764916870765
aF1.36219146148335
aF2.048125107407484
aF1.410709955627523
aF1.1138064193140127
aF1.0123091944009506
aF1.0217794635163295
aF1.2470581363954887
aF1.2292069532292487
aF1.9072302115045916
aF2.498254022363453
aF1.3419966100072194
aF1.2139582719730704
aF3.8961668819923445
aF1.210144218839751
aF1.0017545631602955
aF1.0033884493168488
aF1.0428613356176806
aF2.3903246188698875
aF2.0071044904102413
aF1.290064111014813
aF1.1168261061670561
aF1.0062761288791473
aF1.1508192420024754
aF1.006791275259557
aF2.1367531067659544
aF1.8420825203561768
aF1.5497718732077903
aF1.6674650178385029
aF5.1854957201761405
aF1.0039941520622278
aF1.0560485805831967
aF1.0281411324425265
aF1.1365947528494553
aF1.2266666539824875
aF2.520698746112115
aF1.0251574771679886
aF1.344023359929943
aF3.722574519253339
aF1.2856025770719377
aF2.3823887945811517
aF1.9627670653613878
aF2.21820153532458
aF1.5773345088183954
aF3.6296906011347945
aF1.5878409626994778
aF1.237106177774174
aF1.205452972274573
aF1.0184833742995454
aF1.0097649671965174
aF2.6450580915404354
aF2.688428226662646
aF2.2508361229642553
aF1.5168087220791917
aF2.1750706274165608
aF2.5562728007907296
aF3.127919650930905
aF1.3043848917167256
aF4.731810832975893
aF1.967852508264112
aF1.007593136137002
aF1.2468297156830987
aF1.1363886954288926
aF1.3591055322795094
aF2.3700170661453215
aF1.0039501692256063
aF4.6145792658664595
aF2.21119393726764
aF1.0810530182331415
aF1.0344616963344504
aF1.3055899772025619
aF1.3093510692866215
aF1.0045914013846453
aF3.1369745325489466
aF1.0114295832271476
aF1.3100917976151554
aF1.3411026007931703
aF1.2821913231028594
aF1.007063984820043
aF1.5442220371991127
aF1.3617153568655007
aF1.0986200838412834
aF1.023211738652558
aF1.0189931924422757
aF1.0990404204586601
aF1.3066659517528632
aF1.4400578157456092
aF1.152853531332043
aF7.223782295207781
aF1.0152080096021814
aF2.284922471179352
aF1.0008332773117037
aF1.5431073476522663
aF1.130934423864653
aF5.56451579746551
aF1.3129977351765285
aF1.9677888894871494
aF2.525573582750901
aF1.8060922144478055
aF1.1863319992422667
aF1.2551073057555107
aF1.2744154671810093
aF3.401120907343977
aF3.7114905054451355
aF2.236616427519886
aF1.0033884493168488
aF1.0539646199631256
aF1.761173038405319
aF1.0232374126623878
aF2.4089409117531573
aF1.9112637099711751
aF1.0188525228974632
aF3.601757439932863
aF1.0260373351178729
aF1.2089109600162842
aF2.7073166489666667
aF6.968304272087758
aF1.9786545232548036
aF1.0195715548817463
aF1.1376273301881592
aF1.5737262522836004
aF1.2709902682977254
aF1.0323365889511844
aF1.9408998972448301
aF3.61117771506078
aF1.9235765328198082
aF1.387492812801393
aF12.759036924511852
aF2.487884145170272
aF2.377350675494433
aF1.2016045797885426
aF1.1784622312085409
aF1.4340146833469587
aF1.004578868839019
aF1.035121882371234
aF2.7352889352407326
aF1.966471539422555
aF1.4534640939492791
aF1.2292362564712729
aF1.0275623980062456
aF1.0072605526121408
aF1.4985425939076646
aF1.004827167525106
aF1.0180011590252833
aF1.0043630577408034
aF1.1584842805836713
aF1.0018669789117212
aF1.8359945203513177
aF1.0175911731284515
aF1.491415731035392
aF6.045165916228064
aF1.1462784337135206
aF1.011955021589361
aF2.5970075973320608
aF2.828093641205802
aF1.6064739478868255
aF2.806998924910695
aF1.0258398823797157
aF1.3304778025477173
aF5.210516448063226
aF2.0606263307850883
aF1.2506769237175697
aF1.0731912529235783
aF1.3112675447332485
aF1.1218836478819243
aF1.4132662961413485
aF1.095792158562426
aF1.0082004573874013
aF1.009586096787077
aF1.002750302759914
aF2.162318547842978
aF3.765919051537616
aF1.133271644566752
aF1.017444983435631
aF7.802409957602434
aF1.0436112032022027
aF4.020607760654828
aF1.002386665933159
aF2.6677757246034646
aF3.244204154842701
aF1.071397517742857
aF1.036101528944241
aF1.6914301487883208
aF1.0804460326661967
aF4.853211257946413
aF1.7546852400270243
aF1.3762035943416333
aF1.008522306958971
aF1.1295460626329448
aF1.0816080643190924
aF1.0386034792669483
aF1.094157873678005
aF1.0158365471636281
aF1.3072225672175048
aF1.2279478027704025
aF4.313323519074926
aF1.1974749023006026
aF1.2689003344985377
aF1.2822803972423555
aF1.1171098781966948
aF4.030290599082849
aF1.7243630424260241
aF4.144430511330217
aF2.246272700133953
aF1.9776732013759537
aF1.382644493864139
aF1.5371857313610644
aF1.053485485429954
aF1.602325930709393
aF1.0188995204004736
aF1.2508344139554601
aF1.6835770252006454
aF2.252781516776333
aF2.352583655034734
aF1.1185973860019622
aF1.287593988364604
aF1.2821061043250088
aF1.0296312928129299
aF7.853052460315981
aF1.2166894942498676
aF1.0191353687815314
aF1.2690686964472688
aF3.2549152654801516
aF2.84052670240226
aF1.09643148491846
aF1.0052238378091416
aF1.1387386927281156
aF1.045818703016202
aF7.145527185855815
aF1.1457481464848673
aF1.0876056849385662
aF1.974079670854962
aF1.5462622909223678
aF1.5201639647402732
aF1.2564861691556615
aF2.9202387354340065
aF1.3900018191245258
aF1.969784748417336
aF1.7512788879717873
aF1.2410285586047132
aF1.8141264316057464
aF1.2490196027572884
aF2.4454763197923235
aF1.0091563673918447
aF1.9437978759790835
aF1.2667023666135189
aF1.0047422757478977
aF1.134943323666057
aF1.0278133237995386
aF1.0374489744665885
aF3.8120957325209726
aF1.4927670032268523
aF1.0144217418098085
aF1.845921421784179
aF1.5509548829144122
aF4.539153844143074
aF1.012842746621902
aF2.1407075896681675
aF1.3930900630349392
aF1.1355454540005059
aF1.4985425939076646
aF1.0810530182331415
aF2.5704994072927296
aF1.2751594806913673
aF1.0358269070789405
aF1.2545804205990163
aF1.1605461931881587
aF12.33672852800649
aF1.4826089854481705
aF1.7264558600085484
aF1.0010997145484035
aF1.297513705187404
aF1.165257990706912
aF1.003761802063551
aF1.3692330397541115
aF1.3373723461846747
aF1.0091563673918447
aF1.0218806155670168
aF1.3984753685927074
aF1.0366766417560187
aF1.0177928340259146
aF2.211886549754422
aF1.4260919417669593
aF1.0150711955561325
aF1.2326499928614152
aF1.6890794215872353
aF1.9693664993554953
aF1.4547222287335266
aF5.773604007800542
aF1.179999036785873
aF1.3224054582293863
aF3.991829982716252
aF1.6506552057195496
aF1.9831149487416995
aF1.012673674295325
aF1.0327372593758424
aF1.833735842959086
aF1.3249610091834798
aF1.5405759083449646
aF2.2271250718221562
aF1.3117794877015403
aF1.269937749004141
aF1.0094489926165136
aF1.0024446134275713
aF1.5188712728057392
aF2.1160246247977104
aF2.054892368985078
aF1.825531872588859
aF3.87072368119219
aF1.0177990527207785
aF1.006283710420366
aF1.3203868674130825
aF1.3206378985092906
aF1.1829177328584386
aF1.5807206956912792
aF2.1088457459259407
aF1.154945261727151
aF2.765519586650892
aF1.0651995431688899
aF1.4403245568936305
aF1.171766069582068
aF1.018084295414339
aF1.0414865871678878
aF1.8694588072976854
aF1.0253245308702372
aF4.2238427335372775
aF1.1841480541550395
aF3.1271188809140544
aF1.9572714624930634
aF1.3379235212819467
aF1.405096422740676
aF1.1642838932828978
aF2.491656343958809
aF1.003995658036811
aF1.1476172381842704
aF2.356851473497026
aF1.0997598985796166
aF1.1936570178110049
aF1.053485485429954
aF4.517782810236943
aF1.4675216304519156
aF1.9687985420281648
aF1.7766713582540372
aF1.016313088709402
aF2.1841923889668644
aF1.45204506459955
aF2.6226497305029635
aF1.342857591823869
aF2.020573351239772
aF1.0203365429613522
aF3.0773288048181704
aF1.3779716518568303
aF1.0406473232168292
aF1.6533969634910548
aF1.5050507451390953
aF1.6568589009077679
aF1.3264479579433106
aF1.0187048026072463
aF1.0033462517631497
aF2.4597704736469574
aF1.3485836230197044
aF1.0151397709975707
aF1.7627491487695781
aF3.614095907533328
aF5.630474288816916
aF2.0036670303822337
aF4.174864113232424
aF1.8375604485442805
aF1.5319160398667364
aF1.7249659726332587
aF1.0165788047281596
aF1.0221347908716585
aF1.6635949426574659
aF2.4282798315919543
aF2.4593386222969453
aF9.66263452116622
aF1.191761740814443
aF1.3822004136560242
aF1.3460942832616691
aF1.4427634231955846
aF1.3466739877718494
aF1.4738170287711312
aF1.1405032981300598
aF1.1092569464803164
aF2.014294052765231
aF1.068015357968466
aF1.9951065891167479
aF113.74772695395993
aF2.1999850813726742
aF2.4952510058012547
aF1.8549885459903306
aF1.1425850101845372
aF1.2804968967265034
aF1.035324660197316
aF1.58328527795208
aF1.008572075297244
aF5.439035524379101
aF1.912946594076263
aF1.0855554351254761
aF1.065256092060387
aF1.8359945203513177
aF1.0482584405908477
aF1.027881071767104
aF2.2860668838559057
aF1.2070838772486845
aF1.302249423735411
aF1.0736566313605296
aF2.5889969435199665
aF2.2028692425000376
aF4.591742208307197
aF1.272499242288101
aF1.0271665877303695
aF2.1380929623248677
aF1.1361736782631027
aF2.5435216922526998
aF5.358121926512524
aF1.0010997145484035
aF1.8462972035895866
aF1.2632639921259912
aF3.5112300428447827
aF1.3558168125236751
aF5.061758717295871
aF2.2627466624347825
aF1.9351687182654538
aF1.0223343091816737
aF2.8301734116318213
aF2.11575492067574
aF1.0421319964936715
aF4.328795400582328
aF1.09736621048259
aF2.3703755850821766
aF1.8154515385049537
aF4.606303079078665
aF1.501103513233263
aF4.050834158901506
aF1.09736621048259
aF1.0724940696792284
aF1.853810073149701
aF1.0709801454711327
aF2.3140729257566433
aF2.0150384272188453
aF1.4302443601169048
aF2.6797932072379265
aF1.1786688514749286
aF1.2592607591486162
aF3.3044423809693857
aF1.1220151567426317
aF1.408684558299008
aF1.5246428555491447
aF1.244147664839461
aF1.052487409313547
aF1.5691117650986413
aF1.0017904208343689
aF1.051221673682653
aF1.6325897270038574
aF2.4857179035480423
aF1.6424681219744286
aF1.1763082828330074
aF1.227356175647943
aF1.0083460571742207
aF2.5327833687986905
aF2.1747545022422297
aF1.610838964390432
aF1.1486466768255605
aF1.0742559415550272
aF1.4654863604654065
aF2.8630628519548806
aF1.1303716464324682
aF2.54659575011776
aF1.1006092023750418
aF1.3285348141009585
aF2.6066671444092
aF2.985586452362564
aF1.109275769992926
aF3.459361272666869
aF1.2656552886283634
aF1.4176808198219548
aF10.578481668048234
aF1.196979663496548
aF1.3394344879825604
aF1.018620128218986
aF4.961985262515096
aF3.4294788121780218
aF1.4138317873374706
aF1.6490881337669678
aF1.0276265781456888
aF1.0000567089152816
aF2.722248990536639
aF4.072422827017224
aF1.025368173533626
aF1.0554754839461022
aF1.1487291834432045
aF1.4847767875963096
aF2.6619597946884643
aF3.3523126611644334
aF1.7536105597776335
aF1.9367988595398418
aF1.6138617825873114
aF1.002604644213701
aF4.504253331902526
aF1.3360612166473977
aF4.542043630853995
aF1.0982385404770945
aF1.0021458779668417
aF1.8281131123518513
aF1.0027273195852586
aF1.4621106341918197
aF1.3797990178107022
aF3.3971352965128565
aF1.3115424012945955
aF90.71172335330048
aF1.3711254986263266
aF17.224156349174148
aF1.3803493932788633
aF1.0323365889511844
aF1.6826756341287408
aF1.0055588983009822
aF1.0640263809395283
aF1.6374624197423486
aF1.0607394339767886
aF2.6195213772970987
aF1.1653339172608312
aF3.9936247097604762
aF1.0413147909022664
aF1.0218556328954136
aF1.666856840688356
aF2.3024994768250004
aF1.364764092822174
aF2.6443604131535743
aF1.5459250868514258
aF1.263693189555876
aF2.0421639648855967
aF1.0796413835848058
aF4.1576203350656
aF1.0143789554337141
aF1.483122011497248
aF3.9770304156212357
aF1.012537861463452
aF1.049954994430409
aF1.1353710599344577
aF1.5609936413484458
aF1.1597244543273628
aF1.0326698214170358
aF1.20027289518849
aF1.5181315002573592
aF1.5878409626994778
aF1.2296860780677754
aF1.2116068399194235
aF1.1077478603754556
aF1.5571178097769203
aF1.053521053148504
aF2.1201917488293094
aF1.0050652971382745
aF1.7633861774410922
aF3.330972679981565
aF1.0397324254181353
aF1.2056043670924217
aF1.0340192499062466
aF1.0556835457821636
aF1.0468663266516238
aF1.2495753541685402
aF1.6037470725923213
aF3.4795779029060387
aF1.2042940164109954
aF1.0480694676012234
aF1.064371877780544
aF1.0328303976002626
aF1.1581296284557299
aF1.546711056540261
aF1.6471695523525534
aF1.8910813450883657
aF1.006286651440601
aF3.227353139819144
aF1.0118063339554855
aF1.2947042022959279
aF1.1241255422829575
aF1.4486156508493606
aF1.3731422737375918
aF7.742204085317223
aF1.6728596276862933
aF1.0234056917619176
aF5.318801290709489
aF1.136498411752349
aF6.761231040906883
aF1.220260412748244
aF1.001014775214686
aF5.242812981398711
aF1.8770401650237265
aF3.9653963210963155
aF2.4749193981775686
aF1.808797744169231
aF1.1152902638038695
aF1.1295528824719645
aF1.0957600463048742
aF1.0176474021115645
aF1.0673011394572585
aF2.887818014880428
aF3.3766361455974625
aF1.4201890173622511
aF1.6872897946227996
aF3.575288153807375
aF1.1277620754198012
aF1.2626133575596368
aF1.0214195733961429
aF1.5367845508368856
aF1.9852359331715357
a.