(lp0
F1.0468209031924054
aF1.269738274177794
aF1.8527532376676525
aF1.0919214411653075
aF1.220633824308131
aF1.2684868138713554
aF2.0035080944147325
aF4.808212412034585
aF1.0301049230136041
aF1.2266666539824875
aF1.109695146827027
aF1.0011715830895551
aF2.5116430037957462
aF1.004765134842577
aF3.3682303866612404
aF1.0261440238404151
aF1.0899926517325311
aF2.7959197561853366
aF1.974079670854962
aF1.8114916887618444
aF1.323839967567249
aF4.013089053393941
aF1.1284452551973945
aF1.099772650044557
aF1.6717202768792336
aF3.1143400514294326
aF1.0296312928129299
aF1.201435317808606
aF1.1258899012589116
aF1.0129946510540189
aF1.027881071767104
aF20.126208512973943
aF1.770849654888229
aF1.6676376864907532
aF1.0026009664339508
aF1.2691085772568802
aF1.3547760300894038
aF1.1803684198395077
aF2.1418724619533434
aF1.4281643055268236
aF1.3261118788300963
aF2.236616427519886
aF1.6522272263199789
aF1.252024876504897
aF1.2025676246692685
aF2.9401483419236056
aF1.178483720784025
aF1.0804460326661967
aF2.26042980967787
aF1.5549250615377708
aF2.7082484149215653
aF1.1220151567426317
aF1.133722353056763
aF1.1471036225367337
aF1.091890213201851
aF1.0221347908716585
aF3.558918272776285
aF1.1981399292736816
aF1.5110245417781256
aF6.423583114046437
aF1.0382790287688648
aF1.1361736782631027
aF1.189808022704507
aF1.0790454882931506
aF1.036355986782122
aF1.407070431121506
aF1.0816800434348206
aF1.395165034790223
aF1.0391587116313146
aF1.3165022265373305
aF1.1642838932828978
aF1.005376460455061
aF1.1598482204586138
aF1.485903537250154
aF1.6838873387327966
aF1.5878409626994778
aF1.654392900907844
aF1.0798233083636253
aF1.7546852400270243
aF1.2795214519410179
aF4.140181063087678
aF1.003909861160974
aF4.731988575317202
aF1.1300961050871208
aF1.0224199476220124
aF3.8480001810158577
aF1.0491504548875714
aF1.0736566313605296
aF1.1121376521169766
aF1.5587306703327821
aF1.016313088709402
aF1.9915929721724184
aF1.2183142276574135
aF1.0867356582240137
aF1.6719242640717895
aF1.005595354692196
aF2.8087015096450942
aF1.296897268341102
aF1.0564019926503778
aF1.1919214624450105
aF13.585100357619169
aF1.0828367852475027
aF1.0261807188974301
aF1.7450127379547702
aF1.0105587976285584
aF1.071397517742857
aF1.3757459482046022
aF1.8325051216110957
aF1.2959734360056034
aF3.455055517507835
aF1.7352295869691141
aF2.823272557696458
aF1.0011244752217818
aF1.4033418853332769
aF2.8737995526843587
aF1.009322202292549
aF1.5649431860729814
aF1.4428204793781945
aF1.0150368046305265
aF1.679619617543293
aF2.5203960655334434
aF2.2860668838559057
aF1.0794180601687682
aF1.577358509150667
aF2.2615267492934734
aF2.0437852849132843
aF1.6148462831295658
aF1.007593136137002
aF1.0735991345554246
aF1.0188525228974632
aF1.1259901516479123
aF1.0058872437019208
aF1.0180011590252833
aF2.4373742622629035
aF1.1315468318027346
aF4.6036710450268385
aF1.9831149487416995
aF1.7288431579148522
aF3.3247479792958448
aF8.833640746433215
aF1.5607514536587361
aF1.631006727053143
aF5.893759346907321
aF1.3071922046375781
aF1.0316780934162424
aF2.8492387711855582
aF1.1486642047398001
aF1.4014177645047672
aF1.0770788068013233
aF1.7717108936690547
aF1.6646808370162494
aF1.127318537914641
aF4.320045321417941
aF1.0010555603917675
aF5.094485277954864
aF1.5701776324530832
aF1.3594687090669528
aF2.243114179978307
aF1.2350302989585205
aF1.0142830398653087
aF1.294625489411173
aF2.1909520959814506
aF1.905570186537217
aF3.4881922147024693
aF2.002197044401225
aF6.92021298168444
aF1.1217057336618101
aF2.7804791686685366
aF1.1724910195089049
aF1.0350980119232867
aF1.6039520993854908
aF2.4422882467403726
aF1.0031408733606137
aF2.5403501082576345
aF1.0160713985771432
aF1.1879285248584888
aF1.315537942626003
aF1.0098112646971884
aF4.264957742284573
aF3.2766549518637325
aF1.1049673338031636
aF2.4422882467403726
aF3.3346984801023734
aF1.4602645343676937
aF4.795315805273751
aF1.3300831513211053
aF4.74829421767158
aF1.0451481195842263
aF1.0688524067270473
aF1.015509265292121
aF3.0314293513009005
aF1.7268237264150685
aF1.991556575487571
aF2.29292765435324
aF1.0006322936430323
aF1.1588429746235256
aF4.771678672882928
aF1.4079413992986158
aF1.4005833102156342
aF1.0113719069303282
aF1.016219840418712
aF1.0110561737268302
aF1.2350427928844094
aF1.004095557486541
aF1.9693664993554953
aF1.0091563673918447
aF1.0081468960381215
aF1.8022221249353145
aF2.2275865225033478
aF1.579398806257343
aF1.1608386604334704
aF1.2737605906281757
aF1.5013519720524524
aF1.0138288248829406
aF1.1172117751229562
aF3.2517972543024043
aF1.5977660558464772
aF1.003761802063551
aF1.0103117790301621
aF1.0906837507222629
aF1.788733896442341
aF2.168158396176175
aF1.0230482973107369
aF1.0011059238684497
aF1.6996104465644237
aF1.0140321857206929
aF1.7328518620931261
aF1.3680958916462969
aF1.1777169623442418
aF1.3566130713703712
aF8.89656734379074
aF12.30724635138056
aF1.4018881794723443
aF1.133987251772552
aF1.3617079759922015
aF2.4059282570541987
aF3.2913475784046757
aF1.0663946590945568
aF1.064371877780544
aF1.0005864698378877
aF1.0834085868600383
aF1.0071070780206688
aF1.1785300274439734
aF1.6387463269763494
aF1.003761802063551
aF4.276375403590358
aF1.1540274796511691
aF1.4600457714226274
aF3.091318394836513
aF1.0523488983727127
aF1.0572526102243391
aF1.1276139892910897
aF1.213619262571635
aF1.6639928167921512
aF1.0847098229832846
aF3.4144626452984714
aF3.3639627985553977
aF1.0760387801412272
aF1.3285348141009585
aF1.0012160213087253
aF1.0921071581171904
aF1.0575518581379453
aF1.0852319980441936
aF2.5817986262056944
aF1.9947546670189866
aF16.491354299138884
aF1.0222475015927153
aF1.018253195633688
aF2.3119398419575954
aF2.6699575885001403
aF1.2018450821801654
aF1.0909515259236968
aF2.480607853032337
aF64.05078899666
aF1.0817461491402747
aF2.120829083516803
aF1.073560689786889
aF1.1706210547151252
aF2.068903727565057
aF1.0401943148566584
aF4.3695096168423895
aF1.009586096787077
aF2.101731941007557
aF6.404811790483819
aF1.1648494153508933
aF1.026368898051859
aF3.0703428874077723
aF1.2506546734373951
aF1.4077126119404042
aF1.2597059908242303
aF1.0248797421742277
aF2.143743359198207
aF1.0949993522218047
aF1.7249659726332587
aF2.6388789248055398
aF5.620053307185711
aF1.3352834842444996
aF1.5494132132532354
aF1.4728997422819035
aF1.1573654156860809
aF1.3519373863785922
aF1.303830827368173
aF1.370875886400626
aF3.1029747790177726
aF1.1209523456540142
aF1.9820105819623872
aF1.3460787143570034
aF1.007136823732853
aF1.1706210547151252
aF2.2178490449190784
aF1.0069306694250755
aF5.444704813139252
aF1.2348565157377707
aF1.0716729142515435
aF1.0263509914709492
aF1.014698412690016
aF3.3184617996805508
aF2.6203230426955346
aF1.1967256580488053
aF1.1954064278807377
aF5.978426094961408
aF1.0418120565304647
aF1.4427634231955846
aF1.7977918585783352
aF1.6934266957027033
aF1.0143037074870243
aF3.1840040275447183
aF4.301978115074616
aF1.4183272137930658
aF1.1429067868834468
aF2.2386417551641062
aF1.6964412296827165
aF2.0074350964972965
aF1.4302802739156169
aF1.0344616963344504
aF1.0725396843351482
aF1.3041202847083773
aF1.0708975016471607
aF2.648762541176837
aF3.9150925460473878
aF1.9571624162488692
aF1.172808926473115
aF3.066762845447222
aF1.5721459960505215
aF1.2018452770580443
aF1.0044329383367452
aF2.320274543100505
aF1.0020609722823142
aF2.43142512096099
aF1.0011218145420122
aF1.4141032738666208
aF1.004611163635428
aF2.2272848126333944
aF1.0590152442299883
aF3.3518708098021746
aF1.0261734109559282
aF1.000082062172241
aF1.185281794554609
aF1.0057245635977528
aF1.0070582917480735
aF1.2118685149622321
aF1.484044434879149
aF1.4298992083473212
aF1.2545804205990163
aF1.0358178348514129
aF1.7047114854499015
aF1.6047853574043718
aF1.434204519027561
aF1.9436426540890144
aF3.593226060409717
aF1.0145103144110574
aF1.000231826501524
aF1.0833391187713428
aF2.109835275323688
aF2.0724716416027644
aF1.2117095084304903
aF1.1200968246583098
aF1.0050557649885337
aF1.0723193221959908
aF1.2280733316193595
aF1.1716699569996591
aF1.0145921180786803
aF4.493712419919694
aF1.0446166348745212
aF1.8575350809544355
aF2.066100294612881
aF1.0928151548082072
aF1.4684253114986785
aF1.0699890620134154
aF1.825531872588859
aF1.435458737211887
aF1.140924728173816
aF1.1452054961245102
aF1.007745760294108
aF5.884109351892038
aF1.8513062225370938
aF1.2073594356238282
aF4.182618175481336
aF1.2878016980132168
aF1.1132020587319456
aF4.55159252386997
aF2.665237685510449
aF1.6534133299778169
aF3.828868969071506
aF1.748085506342963
aF1.0251466180519442
aF1.146551273381757
aF1.748085506342963
aF1.6424681219744286
aF1.2780069794635793
aF1.3866292151209776
aF1.1408792660245362
aF2.8428597628534997
aF1.2219414884009399
aF1.2483524950105311
aF1.1243192835523041
aF1.035121882371234
aF1.1109809458195388
aF1.6258694668508822
aF1.0794717147545856
aF6.323025473647935
aF1.1837605860587312
aF1.179240435684596
aF1.2368487853822459
aF2.6376541042392914
aF5.877406862944006
aF1.2150461867722218
aF1.0078630625081741
aF1.6088893870817966
aF3.421251427558746
aF1.8019992408462586
aF2.932774941194194
aF1.0760659105430663
aF1.0810530182331415
aF2.39519614590327
aF1.0634655729338898
aF1.588950981251102
aF1.271880756108723
aF1.0027016278774392
aF2.5734356264855447
aF1.0140659766458964
aF1.3308353161773299
aF1.0006991407982089
aF1.0152685671718795
aF1.8936783014362302
aF1.8359574576320477
aF1.4674328631764173
aF1.0803378168336577
aF1.0184833742995454
aF1.2466450623248715
aF2.4225602023643704
aF1.5940700288505427
aF1.0850286405250025
aF1.4985605598000826
aF1.0385955024653022
aF3.469942427161256
aF2.0577446680907454
aF1.0487428046631462
aF4.422118707740883
aF1.8346615880879438
aF1.0363382353597763
aF1.494332474475218
aF1.9212727416450812
aF1.0219566344820634
aF2.0440586111971824
aF1.0263203591659198
aF1.1804596503408955
aF3.0646668760229003
aF1.2197474921826188
aF1.0421345002485922
aF2.3048283653025554
aF6.581077628753154
aF1.0159673611199609
aF1.0640527388924663
aF1.7008637295552471
aF1.1810405659389893
aF1.1572654523858708
aF5.174026789289535
aF1.0579496105541433
aF1.179999036785873
aF1.9080137106578856
aF1.2298758011203608
aF1.0044218233588313
aF1.2519779184781334
aF1.4609484533394694
aF1.021054280314312
aF1.1266352128264028
aF1.1861773237934123
aF5.710008072975423
aF1.847523390463789
aF1.008085238612903
aF2.1836729458669506
aF1.2097440105355743
aF1.0003499467137877
aF1.0098541624466546
aF1.0046674560427016
aF1.3454252266092572
aF1.0159448403289495
aF1.0100319101897173
aF1.0456943219378783
aF1.0096865608027341
aF1.3879573899007995
aF1.0005385194142202
aF1.1153228471935444
aF2.137466216220519
aF2.54220057851174
aF1.1869048472509593
aF3.5412547143513904
aF2.511509650671491
aF1.1355686249267036
aF2.477723787315431
aF1.2821913231028594
aF1.5168709615640568
aF1.050697989939606
aF2.2566752021922656
aF1.0113349017068283
aF1.0733656414558232
aF5.533191628804292
aF1.008572075297244
aF1.1502252238518098
aF2.8730737494641376
aF1.0658603309643866
aF1.3145669846565673
aF1.2815070428635875
aF2.076449491515829
aF1.1199168961796708
aF1.4281643055268236
aF2.2658344994899107
aF2.4261828910320395
aF3.615385201612219
aF1.030572101941907
aF3.3786178934822524
aF1.0024688967094908
aF1.2867199421249247
aF1.5479822084981478
aF2.562852124154748
aF1.003844737850002
aF1.1598482204586138
aF1.427461888289033
aF1.188570979401894
aF1.0782474021733384
aF1.0627199561159726
aF1.2270145572296673
aF1.612227795250317
aF1.1819783349235629
aF1.7439578957588846
aF2.5116430037957462
aF2.690751871318345
aF1.883005078562906
aF4.961347017361529
aF1.3670518364032307
aF1.0104147432262096
aF1.7049559782627868
aF2.84052670240226
aF1.1705201831689858
aF2.8390808031529686
aF1.0876056849385662
aF1.1397043768466608
aF1.002562966434977
aF1.0777242305732375
aF1.6027021779733084
aF1.1430802466818826
aF1.822265379227426
aF2.8730050379893557
aF1.2226390024371183
aF1.308621159001602
aF2.1079497152301783
aF3.4834973768842303
aF4.000041071071282
aF1.002859921625997
aF2.3744418902123074
aF2.2934318475491158
aF1.0539646199631256
aF1.1776311252942875
aF1.0056764106575495
aF1.2718062690664336
aF1.7234620625602988
aF1.0194290323704553
aF1.3768243422898303
aF1.6156287511212286
aF1.4132662961413485
aF1.0816080643190924
aF1.0285412932915385
aF1.0243495572815347
aF2.8648792384739545
aF4.142779552775486
aF4.866472365544491
aF1.513902418779443
aF2.561960235441898
aF1.010289410643592
aF2.0532367837139627
aF2.216833925647009
aF1.0420388965950456
aF3.113762805766264
aF1.2277927160360496
aF1.8624845344050136
aF2.8239588846879555
aF1.4684253114986785
aF2.3020196682346192
aF2.559599846422404
aF1.1584842805836713
aF1.8947005775751435
aF2.7867863667875703
aF1.8767036970841957
aF22.431879096031828
aF1.2106921880683477
aF1.5158678509722947
aF1.6755784671111678
aF1.4547222287335266
aF1.623782205552066
aF3.799574902839625
aF1.0060972369008474
aF1.010070593061466
aF47.80100402413111
aF1.2152320832813788
aF1.7043070013073573
aF4.203453264305716
aF1.2853842862471123
aF1.9776732013759537
aF1.8750229181635218
aF1.610261651775231
aF4.071185901803802
aF1.1368949391369139
aF1.6934266957027033
aF3.094629333442019
aF1.9752147529130606
aF1.0976156976878353
aF1.484281187530956
aF1.022658600258812
aF7.314855811616895
aF2.0606263307850883
aF2.489118027484441
aF3.095242719569067
aF2.380228967038747
aF1.5345100019371813
aF1.1088590206834124
aF1.7509680761132587
aF2.855348274051142
aF1.4215981381983107
aF5.826820842952304
aF1.3235109322540068
aF1.183061020283571
aF1.0539620400975356
aF1.239910693490979
aF1.102359455987817
aF3.2678376833531617
aF1.169373120340681
aF2.3836052844991977
aF1.0953283302841688
aF1.6659997942990852
aF1.2305291918514958
aF1.969784748417336
aF1.0014850241228952
aF1.9990606826838933
aF1.5442220371991127
aF2.7560473716358374
aF1.4097123982980244
aF1.7138724428545848
aF1.01828778974302
aF1.0275623980062456
aF2.331157703795244
aF2.745028330438492
aF1.235095344268088
aF7.6335712166423635
aF2.50513647438215
aF2.1764867279416977
aF1.708724309384766
aF1.1171315176672072
aF1.7458727912738476
aF1.0662960961063188
aF2.418132881495249
aF1.9606296460906267
aF1.01538417224897
aF1.4196824944362059
aF2.4026694769604098
aF1.3376653598770782
aF1.2946945098483602
aF1.268924134291925
aF2.3903246188698875
aF1.6971712191203503
aF1.6151015143757053
aF1.4958141800509823
aF1.154945261727151
aF3.619836176432557
aF1.0480159354739225
aF1.058116010202098
aF2.3058216729609864
aF1.0105338320283614
aF1.4249749652353445
aF3.35933365912905
aF1.004582334271506
aF2.6050228443420522
aF3.5051118093684805
aF2.2876742296894252
aF1.2631341024658147
aF1.7183372895805893
aF1.1442679916723486
aF1.0221408034072255
aF1.0281901912478082
aF1.128329521695238
aF2.73851513358169
aF3.065160891552803
aF1.0020096265720455
aF1.5340512185264084
aF1.3041214086096484
aF1.575561068273332
aF1.5434631184262124
aF3.310405994241068
aF1.3617487418289878
aF1.1022471896152075
aF2.5935198010008715
aF1.0223196267944887
aF1.9946024324005507
aF4.443689436044853
aF9.68339601250105
aF1.2028562982596165
aF1.4505618306735302
aF2.9999405426979755
aF2.21492500527859
aF1.0000285402032099
aF1.3308353161773299
aF16.882442755277303
aF1.2070838772486845
aF1.0658933549650362
aF1.11458862840511
aF1.0768850541311357
aF2.1647978486239348
aF1.0018597555091797
aF1.3397924257155525
aF2.3250333023061436
aF1.0040782045594252
aF6.492124106298519
aF1.2785872686382758
aF1.5676908716462257
aF2.27565342257499
aF1.454176730200549
aF1.2879576291799504
aF1.3285368555087524
aF1.021709657439039
aF1.997212121949445
aF1.6897626204073237
aF1.0817461491402747
aF1.1817949220296415
aF1.7049559782627868
aF1.7281068850754748
aF1.201435317808606
aF1.4411877138205116
aF1.5709202116140373
aF2.85617944917185
aF1.1410447912576713
aF2.0606263307850883
aF1.9752147529130606
aF1.484281187530956
aF1.6826756341287408
aF1.0852289581811632
aF2.2792550177157964
aF1.0043424510260937
aF1.078473747370727
aF1.5786105237580041
aF2.084475974181636
aF5.350955630991124
aF1.06266621595282
aF1.012670723724181
aF5.343000365781108
aF1.695846616783377
aF3.2000475969928077
aF1.0468921329938758
aF1.877434632877936
aF2.7874012440815963
aF1.0031337126770103
aF1.6413192930926532
aF1.0940643927030922
aF2.8435676677407953
aF1.0940643927030922
aF1.286923528978407
aF1.038474144358234
aF1.0089911887627965
aF1.3647762253274285
aF1.0547172455873197
aF1.8068457811825696
aF1.5146211468811948
aF1.2636275172621776
aF1.2605121745692187
aF1.9603452162309956
aF1.347790445179345
aF2.8874909588663438
aF1.6844977606079548
aF2.195464775569507
aF1.0175368524589876
aF1.0745373347958997
aF10.078273285752982
aF2.066222924912948
aF1.002854877946457
aF1.2821061043250088
aF2.607174040363454
aF1.1612295925773894
aF3.4049232123347313
aF1.0000699480763635
aF2.1500594249848906
aF2.257129722775005
aF1.099573697641241
aF1.0128555366394851
aF1.964358366390504
aF1.2179619980140348
aF1.068015357968466
aF3.991829982716252
aF1.5703157057208181
aF2.775148576846347
aF2.811214330172714
aF9.154335555154402
aF1.6069356927450638
aF1.4503254206223213
aF1.0063902939676563
aF1.0187074176264521
aF4.01618199304924
aF2.580812415806795
aF1.4620495714737596
aF2.559855468702031
aF1.2594250354995296
aF2.8310034632873204
aF1.0616684709112825
aF1.0413147909022664
aF1.118197632179934
aF1.1910103994492238
aF1.4387628689009075
aF1.0913551334825125
aF1.497580376914592
aF1.0048657691936798
aF2.9156157950368855
aF2.8861951093060516
aF1.1002974049495071
aF1.2436400219665102
aF1.3033846696552844
aF1.0202545878663558
aF1.426653826030656
aF3.7345462145170414
aF3.7802687767866163
aF1.237106177774174
aF1.209323111191892
aF2.089404007470231
aF2.3594809437900195
aF1.0270494844982576
aF1.4949342079439574
aF1.0505127614656218
aF7.840901226529163
aF1.0221968735306362
aF4.29065857557033
aF1.2899023648161285
aF1.0327961907770138
aF1.0046674560427016
aF1.0284904938739492
aF1.1179569566585865
aF1.2728003096047933
aF1.0224649269993886
aF1.3296195523506826
aF1.2695223726108233
aF1.0021352695407388
aF1.6123836922206554
aF2.050069123023028
aF2.0532367837139627
aF2.919454604098852
aF1.1812271605266613
aF1.418841242085708
aF4.5156394300771545
aF1.297475146095954
aF1.3617268888313687
aF2.811632104867072
aF1.0150711955561325
aF1.1458366298884848
aF1.563272451240453
aF1.0301434592040086
aF1.5134795735228386
aF1.9933419255339269
aF1.0203729682683624
aF2.486612743212516
aF5.362376030658468
aF1.0351696787110096
aF2.7107798452113077
aF2.5588147811506423
aF2.6509663657186864
aF1.0465486470212844
aF1.0306498627749598
aF3.776156139380797
aF1.0942082082245757
aF1.5236481013845762
aF1.0042302859836847
aF1.0011879861689033
aF1.9634444193131817
aF1.2987427772983398
aF3.310405994241068
aF1.0160966134679947
aF1.051153285650189
aF1.0424579195121884
aF1.3360319813852493
aF1.045818703016202
aF1.1868587622802704
aF5.357405435601591
aF1.1802316098503032
aF1.6151015143757053
aF1.284938298128325
aF1.156809304936901
aF5.794291606395341
aF2.114726901621698
aF1.4302443601169048
aF1.0055341183697453
aF1.4673499774398542
aF1.0007001721015691
aF1.0219546108441677
aF10.061568051830596
aF1.0043866198517517
aF7.140020495286201
aF1.1748985994033958
aF1.8998097958298443
aF1.602325930709393
aF2.8036020218627433
aF1.0064521541343625
aF1.209200828114918
aF1.1457481464848673
aF1.602325930709393
aF1.2703126918334269
aF6.51705572628507
aF4.677254063386848
aF1.150307819459663
aF1.0560023758776118
aF1.295314945999121
aF1.0355652098240158
aF1.1393398880253849
aF1.9373172201199411
aF1.399134192382938
aF1.1214445514357052
aF1.3879573899007995
aF1.008467100717617
aF1.0100949919674598
aF1.274515219522652
aF1.1709203126275263
aF3.930676723108938
aF1.350359455191138
aF1.217431003747583
aF2.3103929857453305
aF1.0876056849385662
aF1.0886747072536502
aF1.133271644566752
aF1.1082488808387412
aF1.4953720910279886
aF2.4129519204975964
aF1.0990404204586601
aF2.0685027435461847
aF2.3406248228335973
aF1.9555507448452465
aF1.0751108124024626
aF1.7225186430815211
aF1.364764092822174
aF1.4609484533394694
aF1.5247528247753945
aF3.309906949438582
aF1.2338902796186295
aF1.5878409626994778
aF1.0007706880599976
aF1.0042946248627957
aF1.002386665933159
aF4.488556482520986
aF1.0003616700707991
aF1.0003616700707991
aF1.0468209031924054
aF3.275132592038738
aF1.3254154490095906
aF2.841160118851174
aF1.1761937348344742
aF1.353465754337082
aF1.0210148284253706
aF1.3308353161773299
aF1.4051239200558419
aF2.3428034361027
aF1.3591055322795094
aF7.728451362536349
aF1.034246732264563
aF1.3697293655704574
aF1.381726979480271
aF1.4264069124697842
aF1.9708109188014855
aF1.0191353687815314
aF1.3997971713943977
aF1.011903251736271
aF1.0235086845061956
aF1.0064021607907663
aF1.0002124618017094
aF1.3693510736205832
aF1.610261651775231
aF1.4381107751472375
aF1.0932992776785804
aF1.2564494779473647
aF1.1377307848228133
aF1.0587247820377657
aF1.1937777820320294
aF1.1010050764649664
aF1.2266908990108796
aF1.2653362628698714
aF1.0276338654988468
aF5.171267925474956
aF2.0992574062303113
aF1.0205340693592158
aF1.161985785803849
aF2.4682361534622044
aF7.0843969235339905
aF4.131982711039817
aF2.1599445897708547
aF1.1530782401517023
aF1.0505252397566063
aF1.313832944944133
aF1.0658603309643866
aF2.186440834391746
aF1.0316788699917507
aF1.3354455827937424
aF1.5212255353367063
aF1.82087877687321
aF1.306403102740962
aF1.1031529315280875
aF5.799968720233467
aF1.00160756250146
aF1.3799284738270778
aF1.5576192468130503
aF5.377382448127111
aF1.4033418853332769
aF3.2699972503722625
aF1.0647217114432639
aF1.106627523664425
aF1.7180147101445438
aF3.9557082156922525
aF2.874795080981571
aF1.4286107388771905
aF1.2631243727135464
aF1.0605225538437106
aF3.927924854415459
aF1.0268498349163564
aF2.0792973930222094
aF1.5555372706720652
aF2.2871665857905303
aF1.7968751508998877
aF3.8143997520789044
aF1.460272396173222
aF2.8831705951038935
aF1.1782666594931053
aF2.1311837501202358
aF1.641803443907195
aF1.7811420850964352
aF1.320717255468356
aF4.74829421767158
aF1.0909501058158058
aF1.068852027146196
aF2.0093438497456177
aF5.191697570437245
aF1.1080707731915111
aF1.154945261727151
aF1.6133770491591188
aF2.447708007601939
aF1.7060544917114129
aF2.708390873766028
aF1.073041616946921
aF1.738984091216699
aF1.0034417993443094
aF1.283516760640013
aF2.111668305359168
aF3.1840040275447183
aF1.6014858388745878
aF1.4672766916053386
aF5.0423189208781345
aF1.012410766835912
aF1.0330921720083182
aF1.1836724315726048
aF1.1614765869236028
aF1.748920003004131
aF1.1904977982356442
aF1.0051837082583719
aF1.1096580074255773
aF1.373506176311908
aF1.06461714227382
aF2.048554514646594
aF1.0577902751133388
aF1.0326362500345092
aF1.0007309432732259
aF2.2657519029478954
aF1.4663997681349321
aF1.146551273381757
aF1.6037470725923213
aF1.4152711438562402
aF1.1957390751281063
aF1.2903826216999827
aF1.0392787462710968
aF1.008873979879372
aF1.0946051835146435
aF1.1990007630010335
aF1.1184048354004894
aF3.501525333248102
aF3.2427248325958136
aF1.7224303725112426
aF2.9070339129892244
aF1.7022769826041175
aF1.011515561548959
aF1.2135999003925584
aF1.0074257166471545
aF1.0421319964936715
aF1.7081942066261206
aF1.4871328625943188
aF1.2695213753738428
aF1.3605440193894405
aF3.291122563152051
aF2.2738155560599833
aF2.2106497793886617
aF1.0827302276373256
aF1.4778515190132797
aF1.5371857313610644
aF1.004179499121806
aF2.7560473716358374
aF1.1600826324744138
aF1.0008119468169372
aF3.9495819687086615
aF1.0178832235594426
aF1.3176240705852138
aF11.552255920962045
aF1.0761454785873934
aF1.567857841340783
aF3.3428798451113004
aF1.2226390024371183
aF1.3819520582472677
aF3.860008695394803
aF1.0112340527411325
aF2.0094747529078973
aF1.0875178987700382
aF1.2466450623248715
aF1.5439404861434038
aF1.078473747370727
aF1.0886747072536502
aF1.5454895413145064
aF1.0907596706853564
aF1.2670746327635853
aF1.381726979480271
aF2.0696939783772224
aF1.2284712111931355
aF2.906206767491392
aF1.0689129044180568
aF1.3279868469339093
aF1.024558101659803
aF3.8467553894478823
aF1.1653303044709706
aF1.1691444618163815
aF3.207315549347595
aF1.0271652053793945
aF1.3366673505728748
aF1.0022449462887144
aF2.2678111841713795
aF1.60406992136147
aF1.5317076310994056
aF1.3569515797189826
aF1.1284323788439568
aF1.045623487854399
aF1.0658339755882311
aF1.3911001950782986
aF1.3762035943416333
aF1.7667929046820623
aF2.1315136494381517
aF2.1244770889326956
aF1.004179499121806
aF1.1930675316935535
aF1.2619265968560387
aF2.7682591425772958
aF2.975317829905231
aF1.4403962796427003
aF1.3744444401977403
aF3.5964361156233444
aF73.25552282780548
aF2.45269272332239
aF1.687709383953687
aF5.0909627820563665
aF1.486822025526875
aF3.7124114994716506
aF5.6704612703920185
aF4.2467072264648325
aF1.7195754834756218
aF1.25571425577386
aF16.47862004205793
aF1.9951065891167479
aF3.5163637620354415
aF1.3483348389834107
aF1.0780772671160757
aF1.34664437950837
aF6.155908159453495
aF1.1015239611221201
aF1.0581899760185378
aF1.221549558624441
aF1.08398678211074
aF2.356851473497026
aF1.1331055380668975
aF1.006286651440601
aF1.22626539494872
aF1.4367680981665079
aF1.3000293870953248
aF1.0332161887080815
aF1.8634556397922974
aF1.1528306563905937
aF1.018397343880753
aF1.1012134737153862
aF1.2934503843595082
aF1.0138288248829406
aF1.2599036449188126
aF1.002348976704207
aF1.2003123586505324
aF2.1134197797982894
aF1.100044365771419
aF1.0830272565434342
aF1.0412216061447614
aF1.018620128218986
aF1.0243539018026377
aF1.0011879861689033
aF1.0020041448610917
aF1.0454629001230527
aF1.1398905504729737
aF2.7654246179407713
aF1.3112675447332485
aF1.385418040650183
aF1.0788285444388326
aF1.164030847193624
aF3.085809811287539
aF3.99188567996578
aF2.57321818164543
aF1.0010110789504034
aF1.7741089830882573
aF2.2716057826299134
aF1.1256670421367885
aF1.0157609527951121
aF1.8564442248040587
aF5.963799408876727
aF2.5677713038257295
aF1.1022141570774446
aF1.7604546137284005
aF1.0863496848346605
aF1.385418040650183
aF3.310405994241068
aF1.2828114636378656
aF1.7657809085396639
aF1.0066504502478972
aF1.1842333485429566
aF1.246630689603296
aF2.8009909445609664
aF1.1672589338096278
aF3.751619257708032
aF1.3047990206094648
aF2.5929481942948267
aF4.622327064491654
aF5.990149313006239
aF3.0175144202560324
aF1.0077117131849382
aF3.151994215705826
aF2.049174479266725
aF1.6720367386546546
aF3.9195586628324683
aF2.309571546478004
aF5.1640876029838925
aF3.67907353238116
aF3.896149245451594
aF1.227364828636584
aF1.3822004136560242
aF1.0060972369008474
aF2.3141119090478846
aF1.0737815394987458
aF1.2884872497826831
aF1.010995222092259
aF1.1557561084477113
aF1.7180021917523376
aF1.0049563135631334
aF3.5476544864962483
aF1.8844164774400731
aF1.6387463269763494
aF3.9653963210963155
aF1.6133770491591188
aF3.9638330215978
aF1.000967068866703
aF2.03818533530537
aF1.4771283621733942
aF1.0321690203669471
aF2.745890255561956
aF3.5999916119889304
aF1.5450357904786924
aF1.0048616480125083
aF1.5980866706735517
aF1.6195642607474385
aF1.007593136137002
aF1.0282033561458006
aF2.236616427519886
aF1.0239896613694521
aF1.0342836211357311
aF4.182113307689759
aF4.030290599082849
aF2.276898681460684
aF1.3675341669835337
aF3.5606760112876032
aF1.6582077892136255
aF3.945378705237018
aF6.510104158580972
aF3.0589830738904307
aF1.1086720549568019
aF9.204135299665651
aF2.312472587843857
aF1.0955249751517673
aF1.3068183056475902
aF7.087396964841438
aF1.0177896910570534
aF6.138620773419615
aF1.5750948800711713
aF1.0011450757754414
aF1.0174114978712616
aF1.145149647906247
aF1.0083938924820903
aF2.7175208227636087
aF5.293932804029836
aF1.0703095664469349
aF1.6650761340034121
aF1.0882939451619564
aF2.2251494942818635
aF1.0468209031924054
aF1.9760854909616345
aF1.1392079000288104
aF2.6341639190857733
aF1.287593988364604
aF1.6823409670633434
aF1.1382978413741744
aF1.0201397143241266
aF2.2074424190045363
aF1.348697198151295
aF1.2253532400526705
aF1.813912715924098
aF1.00098579320709
aF1.9623324657322998
aF2.0645514677331547
aF1.0182113581682355
aF1.1159664053749003
aF1.2534496379548627
aF1.2780687102665118
aF2.129723391373649
aF2.2226864579741075
aF1.5688662933540933
aF3.4525119409258167
aF1.2130193892500178
aF1.297791046418157
aF1.0149047597537708
aF1.0903706427062099
aF1.2795214519410179
aF1.0249402454647252
aF4.85946519572371
aF1.1817949220296415
aF1.0335630227208268
aF1.6421114508763466
aF1.3858349835074308
aF1.0997598985796166
aF1.5564735751300358
aF1.4202519890159642
aF1.0039491569112478
aF1.0473641455946079
aF2.5835459367419444
aF1.9092184747919556
aF2.0037263487585935
aF1.2230133244726218
aF1.1253999181538952
aF1.127604957131961
aF2.5405739805032868
aF1.1804214993557924
aF1.1004867631068536
aF1.127635125374111
aF3.0276554657620114
aF1.0035019422923985
aF1.0385525024766862
aF5.1766805021774704
aF1.054442672588745
aF1.4675216304519156
aF2.3338023408473996
aF1.0543340079186083
aF1.748758109328339
aF2.4217411216091977
aF1.5195874487039525
aF1.9282052048413
aF1.2001040691465854
aF1.54974210278603
aF1.5714135009494352
aF1.171677144972726
aF1.016268579455223
aF1.6674650178385029
aF1.2122841477922106
aF2.3543569348980276
aF1.0251574771679886
aF1.9813756766215063
aF1.9531263738968132
aF1.004179499121806
aF1.3997971713943977
aF4.4060662781765885
aF4.553033119764625
aF1.308014553103624
aF2.681301256881572
aF1.363964725502919
aF1.8390315376606448
aF4.219723452473242
aF1.2016045797885426
aF1.5830778489846582
aF1.3342106499629043
aF1.0266252965260831
aF1.2276241889465949
aF1.1347238106873614
aF3.132130660897347
aF3.677056214902444
aF1.0086448824981928
aF1.2145904130806655
aF1.9002964823566297
aF1.9908596063095976
aF1.1411761070212223
aF1.1909813628394097
aF1.3848963559945882
aF5.470069530445791
aF1.6260739039821495
aF1.8313123486580913
aF2.440069358254126
aF1.0203365429613522
aF3.2314055184802832
aF3.208096187762994
aF1.4901498105543987
aF1.1276621845410075
aF2.350364142505975
aF1.6980281558170314
aF2.0185257655989175
aF1.3803135471843762
aF2.021216157073278
aF1.1590832256806707
aF4.3013693448271075
aF3.8317853497101586
aF1.7691819241868212
aF1.0961237009056302
aF3.162280773059376
aF1.4729639573340214
aF4.61277313539745
aF1.4413857344598928
aF3.7503776787290763
aF1.6611098386672967
aF1.1166385959236567
aF1.5281250270643043
aF1.4183272137930658
aF1.0323835278535454
aF1.0311767044137954
aF1.0107925158729159
aF1.6916966241305413
aF1.3538950659089979
aF1.2653564723409967
aF1.7148630536602079
aF1.3342106499629043
aF6.92021298168444
aF1.015128101267603
aF1.3779312490123674
aF1.109305896445595
aF1.2070188566702396
aF2.6120943623630213
aF4.53787420077959
aF1.6702999739922335
aF1.0328303976002626
aF1.5969362625088506
aF1.5070348626866525
aF1.2387339297139428
aF1.2543907522434818
aF1.1088122490466767
aF2.059144462074847
aF1.1561397695896953
aF1.6874210315574454
aF2.6826937154915207
aF1.4527686925836478
aF1.0203686645868182
aF1.27798658693122
aF1.1312467897081626
aF4.0083957407401485
aF1.0530379584083729
aF1.3397924257155525
aF1.6702957381788939
aF2.01122828748563
aF1.002804157401295
aF3.939688696653426
aF1.2199304971045952
aF1.0060922791813374
aF8.814051199127656
aF4.023690711137503
aF1.4319952977539414
aF1.2228280552320907
aF1.207632574948219
aF1.4978812373467483
aF9.129964205898016
aF2.622474816072288
aF1.0114870898775463
aF2.837401135765497
aF1.011324216186035
aF1.227340157535511
aF3.6062865505946475
aF1.0179558508187085
aF1.2789606333360017
aF2.0110929623201166
aF1.5768081788035864
aF1.0124636675969576
aF1.1034114333690914
aF1.3645824637837927
aF1.9846054463329614
aF2.0696939783772224
aF3.6679268083393035
aF1.028841038306877
aF1.713892363726062
aF7.785387271055
aF1.0233124693046525
aF1.9505154704002272
aF1.0302869225254232
aF1.1942323407518125
aF3.5643107179886453
aF1.0884299162132562
aF1.353465754337082
aF1.130934423864653
aF1.367815977897407
aF1.0828850455106307
aF1.0909515259236968
aF2.0027734148416165
aF1.7820983721280756
aF1.404583459263427
aF1.2921573075573596
aF1.4319952977539414
aF1.177294722702958
aF1.1103096765221971
aF1.2308629213040962
aF3.0866959065869892
aF1.0086448824981928
aF1.277568690452482
aF1.4985605598000826
aF1.0011468875232705
aF1.1750255745067744
aF1.63385145404168
aF2.802479597494953
aF1.0039197634498738
aF1.1655714963872854
aF1.5258091446409263
aF2.925389520178295
aF1.0558507103989585
aF1.9505154704002272
aF1.3632004134749378
aF1.0928151548082072
aF1.0369336841514503
aF1.1299890829755084
aF1.0373971000564166
aF1.7588582610175554
aF1.0650915660396323
aF1.1414891651229224
aF1.057171982498291
aF1.5181315002573592
aF1.7123657687826979
aF1.6916966241305413
aF1.036101528944241
aF2.1555886143519807
aF1.1011379896846034
aF1.8499034710575226
aF2.6738181923029143
aF1.3617487418289878
aF1.0051609278144296
aF2.996942211987213
aF1.29675420963205
aF2.3188166483038106
aF2.533734808962905
aF3.1489841904820053
aF1.1276123283989632
aF3.088165566336599
aF3.814200570916741
aF1.002647772707814
aF1.0043308922684913
aF1.073560689786889
aF8.675916653337907
aF1.1223327138920516
aF1.4178697738581107
aF2.825440417974624
aF1.0457473501618932
aF1.167100951186218
aF2.4427531745769424
aF1.1252488014907076
aF1.4892637862923952
aF1.305334327563584
aF1.752774539542872
aF2.6887003869500026
aF2.003299229658326
aF1.2619265968560387
aF1.32617416502796
aF1.0023913681698327
aF1.7698678232428107
aF1.1921590566993585
aF1.6016824902870506
aF1.0175426538967118
aF1.1304471294826082
aF2.590217487402142
aF1.7180536744809134
aF1.0493774311540827
aF2.5790409964441463
aF1.0015107516040798
aF1.2213246104575948
aF1.639460808860349
aF1.2800507079568328
aF1.277651867845101
aF1.6249193650734552
aF1.3319513509513592
aF1.232000889005737
aF1.1487291834432045
aF1.3558168125236751
aF1.149994313691934
aF1.4343845746178019
aF2.056672321660274
aF1.0327911885374816
aF1.0095810274410184
aF1.6486814218428731
aF5.009448489076386
aF1.1338575327288887
aF5.6704612703920185
aF2.1454854163015
aF2.643190002476545
aF1.1775215815495483
aF2.0528196807929913
aF1.4158860702244345
aF1.0436868624666997
aF1.013624603577494
aF1.0559189888247302
aF3.192795711173873
aF2.8790276176502565
aF2.564586633858976
aF2.8676840344694754
aF1.0025782186096721
aF2.0844672584342394
aF1.068015357968466
aF1.0409887157221087
aF2.0903752720232798
aF1.045415794443681
aF1.0003006356058188
aF1.0583017449506409
aF1.0556361090955175
aF1.5026243753365431
aF1.205453757292388
aF1.0321178926999428
aF1.9348140911954512
aF2.3763202877999023
aF1.5915435800043163
aF1.266490856190049
aF1.886972147635302
aF2.1383748667294173
aF1.355651396225489
aF1.199245785322957
aF1.6874210315574454
aF1.094214146429665
aF27.287575145638744
aF3.7754322599416077
aF1.7972566573924937
aF3.081002912825927
aF1.0062237955687783
aF1.3518363290536275
aF4.875008344820859
aF1.2828644059399332
aF1.2225678294261078
aF1.0007706880599976
aF1.0135908832240121
aF1.5716191115513451
aF1.5604746791277004
aF1.15257432936981
aF2.596666421072504
aF1.1088622901560128
aF2.1191035095430863
aF1.1373769531192675
aF1.9280902758795153
aF1.0162985546461434
aF1.7394451767316785
aF1.0639088050358987
aF1.0045333546183306
aF1.8870423870759903
aF2.8517433908105003
aF1.0651995431688899
aF1.208201275791337
aF7.065931825787823
aF1.213619262571635
aF1.0187052518312534
aF1.228153700299741
aF1.3413868919312717
aF1.1419927756404875
aF1.020464174724542
aF1.095792158562426
aF2.8451362326135574
aF1.0180011590252833
aF1.0265031561931093
aF19.329105476664306
aF1.1662204416550885
aF4.850952514672359
aF1.136680198692429
aF3.4795779029060387
aF3.409597527364094
aF1.9524275948366505
aF8.286833377488277
aF1.000209173217076
aF7.007356408854829
aF1.2982485183250223
aF1.0244027675055387
aF1.4188236128414398
aF1.8876504347374246
aF1.2308629213040962
aF4.152604811440974
aF1.1534083343985546
aF10.499763779371177
aF1.012284224835282
aF1.0672595098751747
aF2.079602089513636
aF2.2711996979501983
aF1.072103358820166
aF1.005353596004144
aF4.314431296152371
aF1.9195628821637376
aF2.0567100457260934
aF3.3318823479324164
aF1.065648668313054
aF1.1291258568569476
aF3.319955584943175
aF1.8603717025967637
aF1.1835333871618212
aF2.485050400590265
aF2.1035816764337683
aF1.524862801271006
aF1.9017892181002118
aF4.195623672258704
aF1.0560197763310157
aF1.9112637099711751
aF1.9313089637832448
aF1.078281662637151
aF2.1328734908411295
aF1.706754916363766
aF1.610838964390432
aF1.1920310917510197
aF2.0290094590864958
aF1.3029454354696455
aF1.382644493864139
aF1.5109091375893142
aF1.0013727448134642
aF1.0326698214170358
aF1.0330756064808764
aF1.5894764212760102
aF1.5223479692900381
aF1.984939105416481
aF1.0347668887293724
aF1.1009794894497922
aF2.6619597946884643
aF1.4871328625943188
aF1.0569295895848403
aF1.912946594076263
aF1.0745373347958997
aF1.358852425846046
aF3.081002912825927
aF2.9712511048964165
aF2.689812871596793
aF1.007745760294108
aF3.1405837731464423
aF1.1251034142291643
aF1.2803551626251883
aF2.6048985250608214
aF3.3523126611644334
aF1.4756514982756064
aF1.4315520970121511
aF1.4498136735069842
aF1.9752147529130606
aF1.0018570018734192
aF1.5371857313610644
aF1.6314187004419398
aF1.455627087130005
aF3.397524684523648
aF1.0392787462710968
aF1.0008730261627492
aF2.090940057738387
aF1.2562453371612015
aF1.0130518309952503
aF1.0039941520622278
aF1.144830476932649
aF2.3622516041702704
aF1.85412437800563
aF1.2854856670308767
aF2.559779942336702
aF1.484187331965276
aF1.1171098781966948
aF1.6528961914296194
aF1.2301545567956442
aF1.4973415727295505
aF1.8227733080708632
aF2.7175208227636087
aF1.9335653939491384
aF1.1740018543640485
aF1.0223343091816737
aF1.1027583618144026
aF3.215748135766659
aF1.3112675447332485
aF1.0118218533975911
aF1.026368898051859
aF3.819614809389392
aF2.6926177836348244
aF1.399724793066624
aF1.0118620486345198
aF1.1829641002423428
aF1.6071612872561436
aF1.2777063938080577
aF1.858462557624887
aF1.8849398623476254
aF1.0001472530254387
aF1.1874846313258092
aF1.0569748390098317
aF3.5818739823954036
aF1.1015239611221201
aF1.4527686925836478
aF1.91612354477857
aF1.122813034167323
aF1.0116982170851263
aF1.3707594619716241
aF2.265533743450151
aF1.2620153102773966
aF1.015803276431841
aF1.4285560773325356
aF1.1842333485429566
aF1.0010439683256065
aF1.2989815893009482
aF1.0862321633675287
aF1.1954064278807377
aF1.7912744138089207
aF1.0395769169029057
aF1.064371877780544
aF1.379556852982519
aF1.5768138010888275
aF1.1125868200676783
aF1.348708575000106
aF6.490074397857618
aF1.0062160247946672
aF2.928981967225788
aF1.6326874459065697
aF1.7921171888129137
aF2.662001055947899
aF1.4629743363002927
aF2.0167998286880695
aF5.950975118520744
aF1.4822001113307854
aF1.1314057821100876
aF1.964358366390504
aF1.3995140354997107
aF1.008124394896398
aF3.1785807300915057
aF1.446788728906522
aF1.363167990865521
aF1.0163659922049444
aF1.0030803790296048
aF2.1194372727460853
aF1.271502665959224
aF1.0356180870983178
aF1.7421870252856435
aF1.2816309188581583
aF1.761173038405319
aF1.0199085838040476
aF1.0911366214109142
aF1.0316788699917507
aF1.058317083174637
aF4.683164669272052
aF1.3273466720364928
aF1.423100855237416
aF1.5156330075404891
aF1.0341120982582013
aF1.6702957381788939
aF1.5281250270643043
aF2.0966323610192665
aF1.09643148491846
aF2.2074610569049065
aF1.1376273301881592
aF1.065648668313054
aF3.2197718814777114
aF1.3887568269141541
aF1.0316591797736399
aF1.0377195647709816
aF1.5555372706720652
aF1.2984853808274255
aF1.8121518650117063
aF2.489118027484441
aF3.6296906011347945
aF1.021086318986464
aF1.3339114610804141
aF1.463456555146709
aF2.1729457220495494
aF1.8261323703769838
aF1.003061686963961
aF1.0663946590945568
aF2.8730050379893557
aF1.124832929215887
aF4.766937394399313
aF2.7654246179407713
aF2.0401849258708977
aF1.3592885146062006
aF1.1543619710592012
aF1.7737506343056195
aF1.0231735414630245
aF1.257908540092258
aF1.2161457978727392
aF1.0831161221871077
aF1.5892698628474171
aF1.8155030740786453
aF1.007063984820043
aF1.004232989091885
aF3.022025543079918
aF2.585413711246778
aF1.8368513790384924
aF1.3460942832616691
aF1.0159602087855462
aF1.4523861708409633
aF5.729554824762469
aF1.8737544903097365
aF1.0077240407764538
aF2.834110823284344
aF2.527953570392478
aF1.1125918632824956
aF1.7714065045128062
aF6.6492537466655115
aF2.17085260405388
aF1.0619086795947394
aF1.9963467786655527
aF1.0895104841319316
aF1.5600240689452882
aF3.022052210856448
aF1.1823133788537772
aF1.662864056102668
aF2.1310077024458427
aF1.0989420679601376
aF1.2800507079568328
aF3.674443992961693
aF1.0023741771100207
aF1.602325930709393
aF1.1698186146261018
aF1.4079413992986158
aF1.2294602404227946
aF1.1225665279801165
aF1.7796055299970217
aF1.012271913561148
aF1.0013429725410463
aF1.8626736439872553
aF1.0359188547507951
aF1.2294932851225184
aF1.0229705782497427
aF1.0355067464370888
aF1.1392079000288104
aF1.7185274294353827
aF1.4698341955996923
aF1.4935518286448313
aF1.2185589695827013
aF4.61277313539745
aF1.4537282849703714
aF1.5829607713585574
aF1.0400222585669028
aF1.6440785136690057
aF1.3457443387160302
aF1.7622137319888125
aF1.1204935446641482
aF3.9103826287913743
aF2.151261334768228
aF1.6027489427648487
aF1.0656104541240277
aF1.5088900742285298
aF1.1735642413216243
aF1.0512583714162305
aF1.0795739740974595
aF1.2166860686865446
aF1.0552738221504958
aF1.3238485817671002
aF1.217447461191963
aF1.1331055380668975
aF1.0324262880696098
aF1.0017545631602955
aF1.1571937395929544
aF1.0269024079312745
aF1.0448717023107943
aF1.1356286345637734
aF5.806796762074897
aF3.305112590241701
aF1.4051239200558419
aF1.035121882371234
aF1.7410149442144527
aF1.6947527758735015
aF1.7082308029480622
aF1.1437628618342068
aF1.9539211595052923
aF6.074103704440582
aF3.44602496350106
aF1.09736621048259
aF1.3070644284315216
aF4.098602911686242
aF1.0160147434056854
aF1.605695836320009
aF2.0739101702052225
aF1.6741610373438305
aF2.6751953045520804
aF2.5562728007907296
aF2.9869321725935105
aF1.0159602087855462
aF1.8371467210450354
aF1.0905743358770252
aF1.5691117650986413
aF3.8290415893709464
a.