(lp0
F1.1581357453070027
aF1.0986200838412834
aF1.004765134842577
aF3.927924854415459
aF1.6446291510663202
aF1.3118613334583122
aF1.4062551720852405
aF6.741154483422159
aF1.0403329325912891
aF1.2980768858310694
aF1.0487428046631462
aF2.1752227596036144
aF1.6755784671111678
aF3.6309250815891496
aF1.002292801932984
aF3.565599890846512
aF1.4026399197537045
aF1.348101945767897
aF1.013247885334712
aF1.0121374223079111
aF1.012670723724181
aF1.0273568680556084
aF1.0139652798386103
aF1.6822088268979323
aF1.2749934793791027
aF1.6086521963053833
aF4.466816478785891
aF3.2100774909355683
aF1.0124183840844663
aF1.1187209092249204
aF1.4388260100701038
aF3.8413212602877813
aF1.0087818084315885
aF1.2984980104012471
aF1.2703126918334269
aF1.3431797168611839
aF1.0658074755221123
aF2.2315931329666263
aF1.383874956822219
aF1.3733177465296385
aF2.5006814526477235
aF1.0829007853374324
aF1.638472084766139
aF2.9301203505104567
aF2.2251494942818635
aF1.305334327563584
aF3.985570690414704
aF1.0420991766607706
aF1.5830778489846582
aF1.9777155241215216
aF5.726210656233883
aF2.070146062361993
aF2.7895172808187003
aF4.246641911418204
aF2.269835832040977
aF1.046657080437323
aF5.3125049408462965
aF1.0736566313605296
aF1.2898281521644692
aF2.27565342257499
aF1.0083460571742207
aF2.517816206222684
aF3.982046844256167
aF3.4796188160863557
aF1.1223521288212182
aF1.0274276228402066
aF1.3660243156458418
aF1.0104420434118715
aF3.386096815886201
aF1.0011218145420122
aF1.0295471306488835
aF2.0747746072389797
aF1.1618759472254323
aF1.0507403027793287
aF1.0100711154936464
aF1.0144217418098085
aF1.4052559962681708
aF1.2529539274527677
aF1.0367774240345977
aF1.6980281558170314
aF1.4992943074897862
aF3.20798825460399
aF2.6738181923029143
aF4.3695096168423895
aF1.0407718135931332
aF1.1673627781867348
aF1.1002749213886935
aF1.1120844154014922
aF2.0240116524439595
aF3.882578809402931
aF1.045818703016202
aF5.573195697775602
aF2.4857179035480423
aF1.0021531474625032
aF1.0038656020998553
aF1.0990404204586601
aF1.06461714227382
aF1.9828322390281516
aF1.1057419249294553
aF1.0446166348745212
aF1.0159415853770435
aF4.3825742659005
aF4.684589613545095
aF1.0809778186461165
aF2.3598946977112742
aF1.1371121068708945
aF1.4542877609999576
aF3.0097353788302157
aF1.0073691385461407
aF1.178483720784025
aF1.3604019335246413
aF1.367185318122393
aF1.2107660572574463
aF1.002348976704207
aF1.0968466826213472
aF1.1288235732846263
aF1.0042767087381226
aF4.317056250824283
aF3.459361272666869
aF1.1357920676170863
aF1.0056985130943155
aF1.267310873534276
aF1.0463399009715
aF1.196553149874125
aF2.7654246179407713
aF1.095035804666663
aF1.0068755785872368
aF1.0693745688408627
aF1.0757964336533126
aF1.7760523799401027
aF1.0219566344820634
aF1.152853531332043
aF1.8081431716358223
aF2.022271261847368
aF2.0167998286880695
aF2.07515099821532
aF1.5160546831010369
aF1.93415081305223
aF2.6621039864261746
aF2.567841941618872
aF1.209323111191892
aF2.0018249496711498
aF1.168856450797056
aF1.5890344735032271
aF1.1200668659683486
aF5.961745110066149
aF1.6660935595642306
aF1.0890005474170081
aF4.030076774781836
aF9.66263452116622
aF1.7185274294353827
aF1.500576227350753
aF1.2749934793791027
aF1.435458737211887
aF1.1706712745252343
aF1.364764092822174
aF1.9713701072730907
aF1.0045333546183306
aF1.0763148867586574
aF1.0517854202520558
aF1.0557075613478262
aF2.3042622257863297
aF1.6477035818637118
aF3.07434651582197
aF1.2324386313943636
aF1.003866700694714
aF1.095792158562426
aF1.1574380760445384
aF1.0513745326708093
aF1.220633824308131
aF8.954608437128066
aF5.415975807803404
aF1.0025927749806713
aF3.849870771515109
aF1.5660417542814007
aF3.108296059246559
aF1.000231209832762
aF1.130513189918452
aF1.0177990527207785
aF1.0575466426464544
aF1.9710165870851124
aF1.0559189888247302
aF2.37122825842015
aF1.4188236128414398
aF1.122108678954396
aF1.4523861708409633
aF1.483206306607725
aF3.5707654445798878
aF1.213619262571635
aF3.2248810652578106
aF3.674443992961693
aF1.0025527599943227
aF1.473471668524216
aF1.9999356670980584
aF1.2069653552109223
aF1.786872224708549
aF1.610802889867374
aF3.6707125468700257
aF1.3588339873166113
aF1.0359915093293237
aF4.881273689371357
aF3.1247389009086177
aF1.344847824462937
aF1.2098336290590637
aF1.0734123618083784
aF3.81977140340183
aF1.239781308266617
aF2.926892182674225
aF1.1147317846105744
aF1.1036263371746295
aF3.115117300382581
aF2.1999850813726742
aF2.628347855483146
aF1.194160374694055
aF1.3266161341882856
aF1.000272626097794
aF1.2119410459379516
aF1.0003200386703162
aF1.0531728124945643
aF2.0765172953851043
aF2.5261819690238085
aF1.0091563673918447
aF1.0003870310590788
aF1.004582334271506
aF3.1836048901844056
aF1.0174953149995458
aF1.0020041448610917
aF2.1252178856060837
aF1.1420543885927703
aF1.1142182059628174
aF1.004506758296962
aF1.6614742116590682
aF1.0766231763677434
aF1.6702957381788939
aF1.0285424157541285
aF5.603147033448318
aF2.5647842860217036
aF1.0151397709975707
aF1.7649181960303286
aF1.5981209074723044
aF1.4298992083473212
aF1.0024446134275713
aF1.0232374126623878
aF1.5228323958389849
aF1.098895530193752
aF1.1373769531192675
aF1.2955052386462076
aF1.4555110824789654
aF1.0879437160962642
aF4.528189368846178
aF3.024741569924451
aF2.124072410072907
aF2.585160734480488
aF1.4778515190132797
aF1.1031529315280875
aF1.1049005564722212
aF5.13208651192858
aF3.569152131552443
aF1.0807829654254981
aF1.00232474767716
aF1.0217438311851357
aF1.012703708465826
aF1.4143809490728976
aF1.1009794894497922
aF4.528189368846178
aF2.0696939783772224
aF3.066762845447222
aF1.4498136735069842
aF1.0076368397079776
aF1.0062548136848721
aF4.526771130577111
aF3.7898897953708044
aF1.0763732608598189
aF1.3232763904183473
aF2.3594809437900195
aF1.8151413145513915
aF1.209200828114918
aF4.493597317271667
aF2.470788141943377
aF1.2764860577563468
aF1.0401943148566584
aF1.059280976450814
aF1.012842746621902
aF1.0311767044137954
aF1.0914938578289477
aF1.054147311542553
aF1.0057653120110066
aF1.174115585975279
aF1.0530379584083729
aF1.6455052594037942
aF1.883005078562906
aF5.260428788852616
aF1.127635125374111
aF3.827112851515094
aF2.2423648829249143
aF1.0163659922049444
aF1.3457443387160302
aF1.7180536744809134
aF5.232382112922078
aF1.002345594391852
aF3.638795983466161
aF1.1038028591995181
aF1.706754916363766
aF2.0036670303822337
aF1.285494982286998
aF1.0936441120218519
aF1.9596742418891993
aF1.5190116299214544
aF3.919212145996019
aF1.1072149545811307
aF1.4285408906382138
aF1.4461849929865689
aF3.5962937767030656
aF1.4097123982980244
aF1.4982775788167795
aF5.4678367097883145
aF1.013262394245397
aF1.6369197074830153
aF1.6897626204073237
aF2.060424171985716
aF1.3645824637837927
aF1.034659719887532
aF1.0952682424188338
aF1.0129456605492526
aF1.6048775576195085
aF1.2467993553019943
aF1.110001097127028
aF1.5247528247753945
aF3.2351494460740278
aF1.004290694406071
aF1.223500394557655
aF1.01365238506879
aF1.1103096765221971
aF1.0069050248295626
aF1.0298140240499403
aF1.4408637574172107
aF1.1266295811840346
aF1.1487291834432045
aF1.457837805914261
aF1.2543907522434818
aF4.807118944807806
aF2.9922598158325995
aF1.3108515093492876
aF1.4839494149328636
aF1.0211006205437023
aF5.39279198033872
aF1.3228147389694385
aF1.6522251565902273
aF1.0033899979727987
aF2.559779942336702
aF1.9402979891377017
aF2.4734164779593084
aF1.3137859193083823
aF5.012957903608831
aF1.7796055299970217
aF2.2673509126481703
aF1.0789903360140676
aF2.6037012849750125
aF1.0375356841218757
aF1.0963979109015014
aF2.154184808284467
aF2.1491607525092205
aF1.208260391793034
aF1.3229067537305783
aF1.2862870184486606
aF2.7776766380495954
aF1.0289531900533864
aF3.07383593082925
aF1.988099848229973
aF1.0935447481782035
aF1.0329446776873221
aF7.943321904109443
aF5.7324803550839585
aF1.90862146031414
aF2.58735503255253
aF1.2606607481014156
aF1.3093493879532976
aF1.8502714858754854
aF2.530152140288572
aF7.265217419751346
aF2.564586633858976
aF1.0818801056283298
aF1.1728335490636523
aF1.2803551626251883
aF1.0089782822326459
aF1.877434632877936
aF1.0039197634498738
aF1.0038914859267016
aF1.0178744806662667
aF1.2221641018816511
aF2.7804791686685366
aF1.0110645633850563
aF2.408117726701682
aF1.1128541277452213
aF1.711489805476624
aF1.1131859516139804
aF1.3645824637837927
aF3.4877043570005064
aF1.9109441098956912
aF1.4985425939076646
aF3.11791541499471
aF1.3897437421365508
aF1.0765902704592525
aF1.001634203907287
aF1.6992359305004894
aF1.9435579016127056
aF2.702880062662057
aF1.0433867837496904
aF1.2921573075573596
aF1.0795294940200182
aF1.1808630639531874
aF1.1312467897081626
aF1.8220837136659156
aF1.0145103144110574
aF1.0017545631602955
aF1.3087415210138122
aF1.0775188672694949
aF1.886249963413952
aF1.8308826855308273
aF2.5330441622417466
aF1.2047702709467814
aF3.461217375185348
aF2.7352889352407326
aF1.0055341183697453
aF2.3677807658582926
aF1.012974024925991
aF1.0009830495491907
aF1.2277927160360496
aF2.7082484149215653
aF6.622190965782387
aF1.5226074468865003
aF1.011112954749301
aF1.5247784703619274
aF2.8216879074985735
aF1.1716699569996591
aF2.3365922622242454
aF10.461701821319581
aF1.045543557055496
aF1.2764440133092063
aF1.5316635747833047
aF1.4544354446747116
aF1.3176240705852138
aF1.2887046946041107
aF1.467855321658014
aF5.2816035902063865
aF1.0190856018481977
aF1.9120231820052787
aF1.2071550934425193
aF1.073560689786889
aF3.2087040933993123
aF1.8151758848250499
aF2.7125930356494385
aF1.0076319723086007
aF1.1067218864990307
aF1.3247448935912476
aF1.1061381750006023
aF1.4953720910279886
aF2.1062142768554657
aF1.3722592113587118
aF1.8262575933725482
aF1.988981932797053
aF1.0191353687815314
aF1.9800407019257609
aF1.7466299280973223
aF2.6762357601100715
aF1.09736621048259
aF3.646556632211678
aF1.1810315353126422
aF5.08637744543218
aF1.0325825777141446
aF1.0011450757754414
aF3.53104844311278
aF2.33356717578375
aF1.0801879487145924
aF1.0378824210888904
aF48.68638463739882
aF1.0351722356017152
aF3.751030450408471
aF1.1228547514371658
aF3.266737358885118
aF1.1166385959236567
aF1.0022449462887144
aF2.4380479002580002
aF1.2853347880226231
aF2.7616461903945337
aF1.3072225672175048
aF1.3209739735891233
aF1.0316591797736399
aF1.5255531350981206
aF1.1151146405174
aF1.2276884101863748
aF1.0055478711317278
aF1.027202817159236
aF2.75984383814791
aF10.097102612382479
aF3.2201150091968627
aF6.354075468214931
aF1.0726454516556982
aF1.3582399801352614
aF1.3080023444684559
aF1.8526639545268957
aF1.2209417525871311
aF4.744903812181392
aF1.8765451817278922
aF1.329528715976954
aF1.000484161035187
aF1.2127350632470015
aF1.2045711636234688
aF1.0765902704592525
aF1.3319513509513592
aF2.2454362774336514
aF1.2067378166921905
aF1.5075108474189232
aF1.0093159057754357
aF1.4477453053788185
aF3.0911790341736918
aF2.1451250306271867
aF1.0581899760185378
aF1.8817133708907132
aF1.0143215436568063
aF1.226517292535919
aF1.0011465320034083
aF1.1200272532706186
aF6.9017113453360475
aF1.3631275184054406
aF1.0942307506757258
aF1.5013519720524524
aF2.2999771115560343
aF1.1709203126275263
aF4.2105617619590445
aF2.847743887781029
aF1.0174114978712616
aF3.5112300428447827
aF1.0214519949348364
aF1.0530143556030616
aF3.1412365158118827
aF1.0358269070789405
aF2.54220057851174
aF1.0859448010849988
aF1.094936925704003
aF1.1709203126275263
aF1.2766269680390006
aF25.392305142292443
aF1.6225888477510162
aF2.34786231706663
aF1.0234554837803251
aF1.0556835457821636
aF2.1512267507616976
aF1.6440785136690057
aF1.163467966570277
aF1.0955249751517673
aF2.6443604131535743
aF2.4373742622629035
aF1.040155479248668
aF1.2944721033976008
aF2.8124585600200476
aF1.5129692859670472
aF4.975613527058295
aF1.0256167505174714
aF1.1153228471935444
aF1.0266748296903916
aF1.588950981251102
aF1.2371127480018147
aF1.3680958916462969
aF1.0145750234671844
aF3.2551182815088637
aF1.8690897793105152
aF2.075358383890269
aF1.6756406252218703
aF1.3363324817457736
aF1.1084030722107883
aF1.4382249703210237
aF1.3941226640652895
aF1.0318889482816664
aF1.897046719725582
aF1.4925412028674339
aF1.140674282924146
aF2.4603425854851877
aF1.0817461491402747
aF1.1268330414871888
aF1.0647951167095484
aF1.142614540958762
aF4.108866033688736
aF2.0093438497456177
aF4.007490827829342
aF1.4419907208679161
aF2.2867282160635423
aF1.6175413255267632
aF1.6874210315574454
aF1.9112637099711751
aF3.550356095596613
aF2.06517286346416
aF1.0011715830895551
aF1.4952136560384497
aF1.0005633322679603
aF1.2066216056104873
aF1.4388387510153502
aF1.1566578952751538
aF2.489118027484441
aF1.0071245156467117
aF3.132130660897347
aF1.085962263690984
aF1.3765489759178409
aF1.0440984233099224
aF2.111668305359168
aF1.3558168125236751
aF1.1416065684008545
aF1.1725414335673054
aF1.0083460571742207
aF1.0897245697684448
aF1.6088893870817966
aF1.179999036785873
aF1.0159415853770435
aF1.0014416922351494
aF1.808797744169231
aF1.1261959968167208
aF1.1154983492210568
aF1.007136823732853
aF1.2451546240233846
aF1.1322389490704943
aF2.356851473497026
aF1.0909501058158058
aF4.113370759847385
aF1.9348140911954512
aF1.007822355503653
aF1.255901292223078
aF1.623607629909592
aF1.0879022715498667
aF5.548241221822489
aF1.7809213864749567
aF1.048598181450191
aF3.579324393382283
aF1.6479156755421969
aF1.0512583714162305
aF1.0015135093614205
aF6.825567058550736
aF1.4069596568254967
aF4.312754072738473
aF1.2506546734373951
aF1.3133095404797273
aF1.2312391019376299
aF1.625657590231863
aF1.3278820510565617
aF1.2376465826064436
aF1.122108678954396
aF4.953698421874884
aF1.0981271071878858
aF1.0456226160185915
aF2.5505979284489473
aF1.9402979891377017
aF1.3329570274644413
aF1.227364828636584
aF1.6923895720653854
aF2.0412350743115546
aF1.4704652339546869
aF1.404583459263427
aF1.2780687102665118
aF1.272499242288101
aF6.3097263132894685
aF1.4267634851424393
aF1.0217794635163295
aF1.9505860596839113
aF1.0276338654988468
aF1.0110561737268302
aF2.440069358254126
aF1.0045914013846453
aF1.3884592468923962
aF1.2862870184486606
aF1.7169817365902298
aF1.7142294111518237
aF1.3254154490095906
aF1.0573328899359309
aF2.6050228443420522
aF1.2988581445300276
aF1.0889220668620818
aF2.926892182674225
aF1.0060786869575327
aF1.5922596737949706
aF1.4390266507884537
aF3.8911499795769418
aF1.1267662571054797
aF1.0253287664394453
aF2.928981967225788
aF1.0264541088152028
aF1.0505252397566063
aF3.4043199890837745
aF2.31995053101387
aF1.051689466138197
aF1.0024352209942655
aF1.4565562344521648
aF1.0188525228974632
aF3.2607523575459445
aF1.0380868333690056
aF1.2239680199592737
aF1.2821061043250088
aF1.0036044183812838
aF1.1678924925338319
aF2.382868690332354
aF1.366413646788655
aF1.0852319980441936
aF1.1368949391369139
aF1.0704812718588208
aF2.537986180482231
aF4.057906276933339
aF1.0083938924820903
aF1.4315520970121511
aF1.4675216304519156
aF1.7778506337564397
aF7.02883185537039
aF6.385863285027183
aF1.9168768349312573
aF1.4381107751472375
aF1.0043424510260937
aF3.0998938720834692
aF1.2690686964472688
aF1.1031529315280875
aF1.6314156524442833
aF1.5181315002573592
aF1.2204084205339303
aF1.1735891275131796
aF1.002179452313862
aF1.0781554054224611
aF1.0569748390098317
aF1.0503009676759505
aF2.258793896298822
aF3.1247389009086177
aF1.000082062172241
aF1.2563180383644577
aF1.3645824637837927
aF1.0870779586774628
aF3.479848500224574
aF1.7771959072752774
aF1.0560023758776118
aF1.2040541825049345
aF1.133987251772552
aF1.0569295895848403
aF1.0776835210165459
aF1.3837747708642736
aF1.1884115257261347
aF1.135881693477446
aF1.410709955627523
aF1.0753548902223662
aF2.254324899560058
aF1.1160165700335243
aF2.449679464836881
aF1.9468188259393935
aF1.0104811765200734
aF1.5367380321217858
aF2.8301734116318213
aF2.748660459101702
aF1.1199880164802807
aF1.0460171121260828
aF1.318423584317761
aF1.454034689565481
aF1.0652688384583506
aF2.289670783847742
aF1.034022653101676
aF1.1832423757203474
aF5.569878250303722
aF1.4033418853332769
aF1.0575518581379453
aF1.0314807845259013
aF1.1355171922595033
aF1.3553709043454507
aF1.7844135763833682
aF1.4761371474179519
aF1.272432167043602
aF2.345715161439235
aF2.580812415806795
aF1.8484081477625578
aF1.0004295427447634
aF1.0794180601687682
aF3.2229526324303044
aF1.2025676246692685
aF1.3647762253274285
aF1.1347238106873614
aF1.0205803678528553
aF3.556597429522351
aF2.1599445897708547
aF1.2471165557666786
aF1.2836622089719365
aF1.0889885582463774
aF2.1211280108066815
aF1.7466299280973223
aF1.687709383953687
aF2.5120326738017473
aF2.366308297665726
aF1.0227087777734907
aF1.00098579320709
aF1.0142830398653087
aF1.3242300299811163
aF1.5320068187229345
aF1.183061020283571
aF1.303830827368173
aF1.0265031561931093
aF1.0714896563202434
aF1.0428613356176806
aF3.4517242809198883
aF1.20027289518849
aF1.7892368213489336
aF1.1784622312085409
aF1.2271031815480964
aF1.127140403455214
aF1.012284224835282
aF3.299646640206439
aF1.2563180383644577
aF2.088406007155912
aF1.3779716518568303
aF1.0136972123840446
aF1.0982042278093185
aF1.0011487098369831
aF1.0036206986352612
aF1.6546047247363729
aF1.4026294536813806
aF1.0793821375425134
aF1.8081431716358223
aF2.068903727565057
aF1.3243183420883593
aF2.577204683238765
aF1.0018597555091797
aF1.182113810208307
aF1.6397600591644317
aF1.13844126115387
aF1.1814994137716748
aF1.0138968345858292
aF1.155255572135902
aF3.5718201977734463
aF1.3843037441348653
aF1.0159783333418615
aF1.1145647491731756
aF1.006350084346879
aF1.1026334227018937
aF2.8965068761744117
aF2.6327602039866824
aF1.5750954087209315
aF2.645248054921164
aF1.0003200386703162
aF3.591154043031892
aF2.6738181923029143
aF1.0436112032022027
aF1.1424098470725705
aF1.2041393226066908
aF2.4013526051557688
aF1.9951065891167479
aF2.848595712565484
aF26.233120130559474
aF1.2703126918334269
aF1.485037477589708
aF1.1820828930084828
aF1.012284224835282
aF2.842712296736776
aF2.455474827072704
aF1.679619617543293
aF1.2480766207075136
aF4.881273689371357
aF1.0828698961175396
aF1.0063931370439463
aF1.0834641221434023
aF1.1730431079878745
aF1.423472239666772
aF1.0088120074772418
aF9.629188113141497
aF1.3393787710275364
aF1.3329570274644413
aF1.029217782330151
aF2.1145799074575735
aF1.1991970834409316
aF1.0152675348111089
aF1.3070644284315216
aF5.653822340510721
aF1.665421564001287
aF1.0012469271103381
aF1.3587663776228072
aF1.0420388965950456
aF1.012673674295325
aF2.043528793100697
aF1.91612354477857
aF1.8003405515160735
aF3.0808018294770627
aF1.6374624197423486
aF1.1011379896846034
aF1.006855082651374
aF1.711219039449591
aF2.252320768597049
aF1.5253691013351083
aF2.9573429775200855
aF1.4819057011319883
aF1.2702804435291037
aF1.751940451866859
aF1.0621511274975264
aF1.003290279561633
aF1.0254412063761216
aF1.0102674380901238
aF1.100044365771419
aF5.37174558495929
aF1.5323505018403278
aF1.1356070425598772
aF1.6211283544184063
aF1.3449151893323152
aF1.1616991932630667
aF1.4149830413953948
aF1.0075738385437956
aF1.1243886972813122
aF1.0165788047281596
aF1.3740134092475456
aF1.3621896076488051
aF6.448615678133094
aF1.321533291615015
aF1.2239128109464839
aF3.627527495069947
aF1.2519779184781334
aF3.6051169408488195
aF1.0035019422923985
aF1.9940754339608247
aF1.7225186430815211
aF1.0308883357146552
aF1.0025009916177812
aF1.0017349784167753
aF1.0637442505983457
aF1.1022984052382439
aF3.389087559302282
aF3.2551182815088637
aF4.393314745253192
aF1.1835333871618212
aF1.356928821638712
aF1.0268240906568624
aF1.0182113581682355
aF1.0070582917480735
aF1.0068964846134096
aF2.995004646483628
aF13.188649820733874
aF1.3082339260689102
aF31.965914051695602
aF4.201973692824755
aF1.3161951917140688
aF1.0005368410580746
aF2.5651952127098787
aF1.3476678796251824
aF1.7183372895805893
aF1.032653052327609
aF2.1688625723747155
aF1.5220071829390516
aF1.1284452551973945
aF1.558455868390258
aF1.0751640904144144
aF1.1011233887484866
aF3.2810736018189632
aF3.3616602136568385
aF2.0804538126399224
aF1.6645805624527086
aF1.8527532376676525
aF1.064913390510482
aF1.0146170342762248
aF1.0112386541182294
aF1.4297128733315476
aF1.2086372929128109
aF1.1188187603535402
aF2.055022942449756
aF1.1576870495478795
aF10.416382161670448
aF3.0703428874077723
aF3.761133615388253
aF1.1015239611221201
aF1.0723193221959908
aF3.183095655589129
aF2.352583655034734
aF1.1356454715795417
aF1.1424411927647673
aF7.087396964841438
aF6.511230365065775
aF1.9408998972448301
aF1.9035441730628413
aF1.8100814752332
aF8.526166318804266
aF1.483122011497248
aF1.1029301706278807
aF1.608190727142575
aF8.455220083973666
aF1.0061049139998186
aF1.010070593061466
aF2.321463888835551
aF1.0810530182331415
aF3.227254397307094
aF1.6796990312351887
aF1.1524654452672183
aF5.59744086104476
aF2.615544004332177
aF2.724691475065102
aF1.04101572350719
aF3.3522639896464055
aF1.2619265968560387
aF2.919150343080473
aF1.7974661067065063
aF1.073560689786889
aF1.016461706066329
aF1.9604289248772402
aF1.5746365787450363
aF1.7243630424260241
aF6.679859619739746
aF1.174115585975279
aF2.4470892090490173
aF1.1748985994033958
aF2.165905150633166
aF2.1459523587365976
aF1.5300207780748543
aF1.4013036062390767
aF7.663165445751743
aF1.1876636003651568
aF1.1368949391369139
aF1.344286987812779
aF1.227555550196567
aF1.4635692274384866
aF7.267795662780741
aF1.1785280672251326
aF6.055977639200914
aF1.0289892267189638
aF3.0961820449661484
aF2.947032957454579
aF1.0502466883095096
aF1.022655537893013
aF1.0151971332311684
aF1.1726138790333347
aF2.615716921241303
aF1.0044672256182658
aF1.063077742027674
aF1.008522306958971
aF1.1985191745802004
aF1.6126732114145885
aF2.1184578799605664
aF1.1617317087681922
aF3.6591331414584265
aF1.0305645209800294
aF1.185197901358433
aF2.8036020218627433
aF3.390476798124918
aF1.1556122714531782
aF1.0238635851070226
aF7.428405512987246
aF4.094752917434523
aF6.3616134528753046
aF2.8617011197685343
aF1.010289410643592
aF1.02196868783218
aF3.7573517408032697
aF1.6400020209958197
aF1.0141381530507512
aF1.0009990744560442
aF1.3931502321968496
aF2.048938102295398
aF4.0237738869111785
aF1.7962130152181288
aF1.3405897821704786
aF2.5328055454094134
aF4.182618175481336
aF1.1612276531835435
aF1.09766121193308
aF1.0003616700707991
aF1.1901489812026789
aF1.9326025433820069
aF1.0560485805831967
aF1.0715169088293324
aF1.078364088021628
aF1.7832094629561872
aF1.0193395665705278
aF1.0233124693046525
aF1.0693999319012328
aF1.6693873619104493
aF2.377350675494433
aF8.031760043689678
aF1.0005281723862944
aF1.057171982498291
aF1.8900854974994519
aF2.4755091391665163
aF8.466159529504516
aF1.3619783001798118
aF2.8743420137963387
aF1.8154021259411106
aF1.005595354692196
aF1.1574380760445384
aF1.2230133244726218
aF1.1253999181538952
aF1.1237824371375418
aF4.269983577976288
aF1.0862136097946906
aF1.0246871537440656
aF1.0161375834085136
aF1.0721288354457097
aF1.41419997033958
aF1.3118613334583122
aF1.2142631399955128
aF1.3780420326576834
aF1.1907324933217895
aF2.501206590001721
aF1.2495753541685402
aF1.3542437975537778
aF1.9749035805243478
aF9.363927685649582
aF1.1118529853115573
aF1.7097648961085459
aF1.2166894942498676
aF11.611566959234786
aF1.0642553487595348
aF2.8700582426633714
aF2.6012519510180465
aF1.0516184593991695
aF1.0229995273340404
aF2.109587318167046
aF1.3707594619716241
aF1.100044365771419
aF3.9195586628324683
aF1.2975579000292454
aF2.282797615993898
aF1.144830476932649
aF1.5404120783295727
aF1.177294722702958
aF1.0359115234927014
aF1.338957208318855
aF1.1620927180646703
aF2.54892119504565
aF1.9999356670980584
aF1.950859980518242
aF1.8910813450883657
aF1.2535610843724545
aF1.1559530510685425
aF1.4272568736369757
aF1.025918732353706
aF3.0661875771296834
aF1.363167990865521
aF1.3913513620975533
aF1.1049673338031636
aF1.6645666283224296
aF1.8281131123518513
aF1.328085863457057
aF1.2006001381081883
aF15.485019485256737
aF1.0337150183428154
aF1.210680473853126
aF1.0254277248122656
aF1.2230491321930022
aF1.2083280417843967
aF1.4163452131515895
aF1.0508098222558468
aF2.359713841330106
aF1.185281794554609
aF6.276346148859436
aF1.1946742948764832
aF3.51927967129966
aF2.1686627366721503
aF1.3130265590871653
aF2.5704994072927296
aF1.7691819241868212
aF1.0418820994665174
aF1.599861149905688
aF3.880577727949249
aF2.4338019759951393
aF1.0016148911774363
aF1.2368487853822459
aF1.109305896445595
aF4.301882126998375
aF1.6249193650734552
aF3.3701202081965342
aF1.1612295925773894
aF1.0726188791716245
aF1.0611581835944175
aF2.712610648450166
aF1.1821208534359728
aF1.1942323407518125
aF1.0795206566033937
aF2.0580447541171205
aF1.057139181822618
aF1.0876056849385662
aF1.220260412748244
aF1.065648668313054
aF1.1543619710592012
aF1.849476473317387
aF2.068940163407091
aF1.0160221555572029
aF2.5006814526477235
aF1.028841038306877
aF1.078473747370727
aF33.770249745525525
aF1.1207006847983974
aF1.4738170287711312
aF3.3701202081965342
aF1.0188995204004736
aF1.5703359069234621
aF1.016313088709402
aF1.4427634231955846
aF1.0604687602431428
aF4.712070509222882
aF1.0672595098751747
aF1.2571298049603539
aF22.981000158033197
aF1.0582181063286493
aF1.82087877687321
aF1.0656104541240277
aF1.0342429046207955
aF5.413180497357668
aF1.1287039404698627
aF1.0011465320034083
aF1.101793488726388
aF2.1823748989513847
aF4.357674206596348
aF3.9040496586129803
aF1.0713956585097606
aF2.5538919401993265
aF1.2004325508036424
aF3.9813434584259673
aF1.8591053761590484
aF6.404811790483819
aF1.226402855474665
aF1.01411808806082
aF1.0314400661794314
aF1.472350685478478
aF2.1420763970475094
aF1.2878016980132168
aF1.0060922791813374
aF1.9658377235364926
aF1.0368224240706236
aF1.0489224632738388
aF1.3112675447332485
aF1.0135979576260903
aF1.3100917976151554
aF1.558455868390258
aF1.6351850781035553
aF1.0132750065959728
aF1.072103358820166
aF1.0369336841514503
aF1.002750302759914
aF1.052728495944636
aF1.5026243753365431
aF1.9072582795580149
aF2.177077323355272
aF5.595697186168804
aF2.281329029900464
aF1.0048657691936798
aF1.924783292566725
aF2.3098629355531446
aF1.0269024079312745
aF1.632027185582567
aF1.0735991345554246
aF3.886705640610906
aF2.3903246188698875
aF2.8435676677407953
aF1.0643261819467218
aF1.2619561788359699
aF1.0243362494728054
aF1.022878435130887
aF1.0316591797736399
aF1.3873205797399193
aF1.8910045979304138
aF1.0479765191219184
aF1.5709202116140373
aF1.060376100787629
aF3.5172319320222756
aF2.5840301886244714
aF1.242302459709031
aF1.0349267965665165
aF2.5328055454094134
aF1.172808926473115
aF1.1476040250553998
aF1.586730016819451
aF1.8642656111607443
aF1.6490881337669678
aF1.4411877138205116
aF1.011112954749301
aF1.6774338916661078
aF1.3370077996636451
aF1.8454565134103897
aF1.0747067639625667
aF2.8650943271684253
aF2.269835832040977
aF2.986272694584059
aF1.0054696370886131
aF1.5609936413484458
aF2.5764478068920664
aF1.8151413145513915
aF3.5962937767030656
aF1.5013574834642507
aF1.2508344139554601
aF2.9236860254312838
aF3.085809811287539
aF1.3592885146062006
aF2.4046939526808333
aF9.84056531580974
aF1.0830272565434342
aF2.8972621488137125
aF2.8087557580984184
aF1.1529800165741948
aF1.4995441010401505
aF1.6133770491591188
aF1.008085238612903
aF1.0953283302841688
aF1.2455308381737857
aF1.0465872041500133
aF1.1190163131529098
aF1.3342106499629043
aF1.057741189174983
aF1.1946150263497617
aF1.033293553966384
aF1.1331055380668975
aF1.0370263829324913
aF1.1537176849204018
aF3.476893212403025
aF1.3175890185541332
aF1.3354455827937424
aF1.0019129965802602
aF2.046604107126268
aF3.1211530608972207
aF3.5746424909548167
aF1.0336607231353026
aF2.476603128635018
aF1.1200272532706186
aF1.4793454469437066
aF3.5476544864962483
aF3.395708245565399
aF2.983346808542772
aF1.8977561842306707
aF1.004582334271506
aF1.5476106052345437
aF6.3304497296389854
aF1.1785300274439734
aF1.159931823402914
aF1.0199606786898374
aF1.06426913676196
aF2.152668909720823
aF1.1243886972813122
aF3.5573061110594217
aF1.4178697738581107
aF1.0395769169029057
aF1.0743185707796024
aF1.9155710562891757
aF1.8051744982638862
aF1.353465754337082
aF1.198614168476357
aF1.7247666354336364
aF1.1187209092249204
aF2.718622315839052
aF1.0904183244530383
aF1.3822004136560242
aF1.4039658202453338
aF1.0473382520363217
aF1.0044963082176264
aF2.866446289754759
aF1.0065092574461945
aF1.2003123586505324
aF1.2558514178348001
aF1.003761802063551
aF1.0087920056444413
aF1.3053949165742402
aF2.7950093907505775
aF13.21423631766307
aF1.5268193938275534
aF1.0055142796795538
aF1.85587256022665
aF1.3278338048653593
aF1.008124394896398
aF1.0831161221871077
aF1.3594687090669528
aF1.1276621845410075
aF1.2980768858310694
aF1.9415253358806097
aF1.4594310150562635
aF1.36219146148335
aF3.6073692030898785
aF1.6037470725923213
aF1.17455588318391
aF1.348101945767897
aF1.3304077020541631
aF1.0033884493168488
aF1.0191069362349965
aF2.084162555604973
aF1.0539646199631256
aF1.0940643927030922
aF1.1128541277452213
aF1.0183693168539407
aF3.7098757753828013
aF1.2983241988543608
aF35.82160980547999
aF3.421251427558746
aF1.5412831596132717
aF3.4131245926227236
aF1.1684094015111668
aF2.738586265631395
aF3.192537250233015
aF2.2538899151581173
aF8.969640472979906
aF1.0956877369172222
aF1.0894593408033055
aF1.058317083174637
aF1.018084295414339
aF1.477335506566411
aF1.130934423864653
aF1.0089030698553905
aF1.019136201030747
aF1.3851866175658685
aF1.413429209885868
aF2.5327833687986905
aF3.4246969763570925
aF1.0782474021733384
aF1.1040115896616423
aF1.1874544561350375
aF1.0816800434348206
aF3.6129661445225403
aF1.826920239293764
aF1.0178832235594426
aF2.0185257655989175
aF2.2074610569049065
aF1.1895530633129057
aF1.127604957131961
aF1.0014860707751394
aF1.6010740088406
aF1.0741883511814596
aF1.3483348389834107
aF2.975317829905231
aF1.7451051140703673
aF18.396782550292592
aF1.0242870357545657
aF1.0422035162084344
aF1.1042275402825623
aF1.0522023867289165
aF2.1380509979922966
aF1.0456943219378783
aF1.0637424717534727
aF2.490626573953153
aF1.005476607728305
aF1.3693510736205832
aF1.0425573085512188
aF3.239380903824478
aF1.1804214993557924
aF1.0902045209143225
aF2.075131947175176
aF1.0356180870983178
aF1.0263509914709492
aF2.1687155450698277
aF2.7744002604730307
aF2.1157278579759833
aF1.0368746179184871
aF1.0306498627749598
aF1.4715563268208216
aF2.0727160978018686
aF7.101775739282345
aF3.9594008301400008
aF1.091890213201851
aF1.3250306805934216
aF1.4684253114986785
aF3.299646640206439
aF1.2522559331710894
aF1.9072582795580149
aF1.7379811446883122
aF2.293883211571632
aF6.071309424234259
aF2.6807638900315505
aF4.465740429760151
aF1.1010050764649664
aF1.2183142276574135
aF1.0159602087855462
aF1.1381374337838444
aF3.143504363673771
aF1.0997598985796166
aF4.359194468193973
aF1.5890344735032271
aF1.066747800942161
aF1.5947565407921358
aF1.00011219933576
aF1.4387708287210876
aF3.2953874399147525
aF1.6387463269763494
aF1.3163863174883286
aF11.991980368136073
aF1.4884106557401744
aF1.0307452408355726
aF2.2667323917852427
aF3.9253419847372197
aF3.5614272525407173
aF1.1572961782376012
aF1.0040782045594252
aF1.4138242101274365
aF3.162280773059376
aF1.002854877946457
aF1.001031031234983
aF1.0989519677022654
aF1.1152902638038695
aF1.0327961907770138
aF3.1029747790177726
aF1.519361989872001
aF1.0441679526678926
aF1.0656105177983821
aF1.3664335592001127
aF2.268114657029336
aF1.1296545960644233
aF1.193189555947021
aF1.4574154143262086
aF2.050392719575765
aF2.955732628186562
aF1.0737479940737968
aF1.3308353161773299
aF1.1997220276709304
aF1.2405269409765485
aF1.035121882371234
aF1.0284826725112812
aF1.059280976450814
aF1.0063189501202205
aF1.1446240549974454
aF1.5102726137394855
aF3.9386929628326777
aF17.057449628452606
aF1.4253598410817485
aF1.5412831596132717
aF1.1528306563905937
aF1.1214445514357052
aF1.6077389219678146
aF1.2946945098483602
aF1.339023453285858
aF1.1868587622802704
aF1.1382978413741744
aF1.8993990968076215
aF3.270798488221651
aF1.1132020587319456
aF2.220698189741331
aF1.0466870185960475
aF10.010604970889558
aF1.9927954194390987
aF1.002348976704207
aF1.1785300274439734
aF2.7455054735100717
aF3.0808018294770627
aF3.709056132274438
aF4.747139459635152
aF1.8546769155550855
aF2.145745111095934
aF2.0336025705097565
aF1.0012469271103381
aF1.1607388192677726
aF1.0142830398653087
aF2.656697338313684
aF1.0528862695954886
aF1.1128541277452213
aF1.7059320499868726
aF1.1597244543273628
aF1.396991706066495
aF2.8236978357772564
aF1.0373971000564166
aF1.0828367852475027
aF1.2365861119021362
aF1.0138288248829406
aF1.8842273817625812
aF3.7850693106362208
aF1.6934266957027033
aF2.580812415806795
aF1.598755354596941
aF2.34769115499964
aF1.0175659469441094
aF1.6835770252006454
aF1.5857308567318802
aF1.1276621845410075
aF1.7174331263318856
aF1.9034749744186719
aF1.0038835108904562
aF1.275195463539783
aF2.0290094590864958
aF1.0021893375344881
aF1.015918212017135
aF1.8085037784271523
aF1.0040502603584838
aF1.1507406144656023
aF1.7972566573924937
aF1.492690610205829
aF1.3852621024482852
aF1.2573055516266196
aF1.4883083832490343
aF1.2239607502221825
aF1.0794717147545856
aF3.1063036579103116
aF2.8087015096450942
aF1.3006356642337482
aF1.4770804309668326
aF1.1370523678094793
aF2.432440539087976
aF1.9337426975685563
aF1.1355686249267036
aF1.46888032216532
aF2.8874909588663438
aF3.4803285775027555
aF1.0066614214118452
aF1.136459385592161
aF3.6531147688526047
aF1.244647324439946
aF1.6916966241305413
aF6.083032978541878
aF1.0534395529329361
aF1.149726832408184
aF1.634209160398738
aF1.0936441120218519
aF2.5538919401993265
aF3.776156139380797
aF1.3410882837782352
aF1.6148462831295658
aF1.1978958036593812
aF3.997032487961388
aF1.2624392964357534
aF1.0081468960381215
aF1.0004610258310491
aF1.0326012674327034
aF1.0153139585981938
aF1.3421514238722247
aF4.551534089563889
aF2.8745190936563
aF1.0256190993311358
aF1.4201890173622511
aF1.140674282924146
aF2.9612441875218845
aF2.6385538965036424
aF1.0064766066614048
aF1.1662204416550885
aF1.0087122571704583
aF3.751030450408471
aF4.0237738869111785
aF3.3428798451113004
aF1.0150770199430674
aF2.4603425854851877
aF2.9818848467183288
aF2.444849286276948
aF1.8928222545553344
aF1.3566254811609597
aF1.0053529751671477
aF1.0492812286947617
aF1.0971415397313298
aF2.2045399848679796
aF1.751940451866859
aF1.0161769308600175
aF1.058392906295282
aF2.231586845917916
aF1.0113057232195697
aF2.1296261072603024
aF1.821394396798238
aF1.0532696235931187
aF1.0007706880599976
aF3.7281721151853913
aF2.9264848387708238
aF4.866575617659822
aF1.001120718951056
aF1.6785081490075935
aF5.245199477530278
aF1.0178512883849347
aF1.0759750611131351
aF2.0356598685132457
aF1.671578915765989
aF2.961786265233301
aF1.0543340079186083
aF1.0128625581788715
aF1.5319160398667364
aF1.0051609278144296
aF13.434447356561233
aF3.0562828160746087
aF1.1452054961245102
aF1.3693343120970443
aF1.0046779187112895
aF1.9351687182654538
aF1.0726454516556982
aF1.679618140143713
aF1.0354924717003393
aF1.3523775613568247
aF1.2716706591558895
aF1.1823133788537772
aF1.4620211533366616
aF1.0099196973534021
aF1.1019563583216163
aF1.032148545974753
aF1.07170831392144
aF1.3018820747785806
aF1.9210921538352015
aF1.1295460626329448
aF2.684172887168275
aF1.5880304647282761
aF1.043225840085345
aF1.0203686645868182
aF1.2399687134755868
aF1.4527686925836478
aF1.5302445271592413
aF2.7370810384744186
aF4.964103971340823
aF1.4319952977539414
aF1.1505814270603265
aF1.0417187609898817
aF1.101189505575621
aF1.0346679763221052
aF1.1276123283989632
aF1.5344293624793377
aF1.7546852400270243
aF1.3702985550575553
aF1.1288792650033277
aF1.4935518286448313
aF1.042739439066147
aF1.09736621048259
aF1.207804449353477
aF3.0911790341736918
aF1.623607629909592
aF1.4447050489709237
aF1.0125388392024433
aF1.473759787034227
aF1.1762725798948344
aF7.662462088291892
aF1.7820983721280756
aF1.9045876483693893
aF1.4512057146738369
aF1.63385145404168
aF4.140181063087678
aF1.8352924582970769
aF1.0824830507984005
aF3.239380903824478
aF1.1825185678702388
aF1.7742420196863813
aF4.731164841958531
aF1.0188753818552316
aF1.1378711185438861
aF2.0885071896798317
aF1.0628871403704536
aF2.4985778823453626
aF1.4196824944362059
aF2.013296721266952
aF1.003516378821724
aF3.1405837731464423
aF1.267616548259394
aF1.0411055825168278
aF1.002510405629733
aF4.017098013687368
aF1.1457129967195157
aF1.6258694668508822
aF6.098013973859354
aF1.08552548963774
aF2.2931318828621143
aF1.575561068273332
aF1.9038440856082657
aF1.707611847162965
aF4.622327064491654
aF4.296281827763557
aF2.847743887781029
aF2.63423389808336
aF1.18356882216689
aF9.681760775487518
aF3.722574519253339
aF3.619836176432557
aF1.2609060356463517
aF1.3308353161773299
aF1.3591055322795094
aF1.505493142475046
aF2.6916691837992763
aF1.0172322468013213
aF1.1081129319111132
aF2.032908302679367
aF1.279409974554139
aF2.72415479687174
aF1.087015739953153
aF1.2898281521644692
aF1.2008534261343362
aF5.67763198936133
aF1.1004867631068536
aF1.0111184661851005
aF2.8926309316711305
aF4.287819292040459
aF1.0043630577408034
aF1.0070275645604745
aF2.277336696000442
aF1.0316591797736399
aF1.0121559060352818
aF1.1246941286390153
aF1.3557266418656493
aF3.235915708171288
aF1.4971999576845005
aF1.0222785026542378
aF1.423521554104657
aF1.2435504047513073
aF1.1232250683739973
aF1.0251574771679886
aF1.1714070422346843
aF2.646110023424427
aF1.0581355893989413
aF5.0563705593355515
aF1.1259430484482509
aF1.0038711859585945
aF1.8979789636676603
aF1.2764440133092063
aF1.3072225672175048
aF1.3822004136560242
aF1.2491859808718708
aF3.455055517507835
aF1.6579180275081011
aF1.44873371068536
aF1.0553370676303566
aF1.5471325186378113
aF1.0045565839932107
aF1.7811420850964352
aF1.7876431815153389
aF1.0230740165174992
aF1.9385563388945053
aF1.5571178097769203
aF1.1285507579732095
aF1.6394632436583714
aF3.5740041878426143
aF1.177493059516472
aF1.078768448204432
aF1.2436510421812976
aF18.49951240631279
aF2.7472741984569913
aF1.0735991345554246
aF1.1085079513784237
aF2.2921859503176183
aF1.2609060356463517
aF1.1707705142701552
aF1.7288431579148522
aF1.355651396225489
aF1.023089301547526
aF1.8131792328094503
aF1.5206341639628935
aF1.5873805917100785
aF1.2912584592653074
aF1.0624974807041736
aF2.0804829709652966
aF1.5252093554438926
aF1.1476040250553998
aF2.5676852883694825
aF1.0828850455106307
aF1.028930683932476
aF1.7368376351011343
aF1.001120718951056
aF1.2519779184781334
aF2.4217411216091977
aF1.0693155818284603
aF1.833735842959086
aF1.0144041047460046
aF4.553033119764625
aF5.905066330002145
aF1.2289642959834528
aF1.0043630577408034
aF2.355023528422272
aF1.5724922411076727
aF1.2751594806913673
aF1.7622137319888125
aF1.1795688997740859
aF1.576022313032335
aF1.3198070676025335
aF1.5371857313610644
aF1.0283704424463151
aF1.6061592144487034
aF3.7548441425469776
aF2.4093087422777217
aF1.0768850541311357
aF1.3360612166473977
aF1.1899346067248067
aF1.0103117790301621
aF1.3599813583224207
aF2.0515031144661497
aF1.4087225166763377
aF1.403246514329533
aF1.4902437613001553
aF2.4268467879099975
aF1.9120231820052787
aF1.2605121745692187
aF1.0042319556493513
aF1.5071601900306495
aF1.7381863040555445
aF1.0332518256888112
aF1.697294364015488
aF1.2828644059399332
aF1.284938298128325
aF3.5051118093684805
aF1.010826187190824
aF2.039294202084415
aF2.909978546350772
aF1.902312791960966
aF5.297377596811575
aF1.024764492959682
aF1.0512583714162305
aF2.309176211233917
aF1.420719586155603
aF1.16987116747828
aF2.5120326738017473
aF1.0097784990767924
aF1.0550044601168713
aF2.402841963144106
aF1.03843653787289
aF4.542043630853995
aF1.1534083343985546
aF1.4822001113307854
aF1.3360319813852493
aF1.0903706427062099
aF1.4486156508493606
aF2.152668909720823
aF1.019789570111068
aF1.0011579276253624
aF1.4339050370365471
aF2.29292765435324
aF1.8664334502607158
aF1.0466870185960475
aF1.4467353298821035
aF1.2932339772817745
aF3.8317853497101586
aF1.7033586356971948
aF6.263410791279113
aF1.0566973523127705
aF7.524079853027717
aF1.1465302144727465
aF5.050100215315234
aF1.095792158562426
aF1.584262401313329
aF1.03373876474225
aF1.372449746422627
aF1.978956667373261
aF1.9883983096492923
aF1.3664335592001127
aF1.0331233148209344
aF1.1268996516918472
aF2.926892182674225
aF1.048607276905986
aF4.384518540676757
aF1.4619815054732135
aF1.7167274052892378
aF1.4102758278384406
aF1.0319352624686757
aF3.8585572075660646
aF2.08282587497111
aF1.0239929890872632
aF1.11456984051353
aF3.7140025830829297
aF2.498736201228325
aF5.230814823840955
aF1.605695836320009
aF1.0268204393325016
aF1.4508021595298954
aF2.0901419097355722
aF1.1368949391369139
aF6.42312674970599
aF1.5518793705763099
aF1.0055341183697453
aF1.1403756756430745
aF3.3346984801023734
aF1.194769446243365
aF2.7962310342084757
aF1.0247347570407581
aF1.3154244529588768
aF1.340167790786631
aF2.9132282371154563
aF1.6867963005321613
aF1.0740333866270493
aF2.269825648146684
aF2.08282587497111
aF3.118541781600008
aF3.227353139819144
aF1.136289638326661
aF3.2087040933993123
aF1.6007132507534927
aF1.485903537250154
aF1.3529534374444607
aF3.341733915251603
aF1.0003147428206387
aF1.876144741886376
aF2.198739148177282
aF1.019685592417723
aF4.599638729354925
aF1.9333190548802681
aF1.5160546831010369
aF1.3570332828815947
aF3.7503776787290763
aF1.5665011208815922
aF1.0239286762345197
aF1.071438688381001
aF2.5992649641370034
aF2.5211507079526316
aF1.288591118076949
aF1.3617268888313687
aF1.6311265810183642
aF1.0145827265163072
aF1.4480095852269206
aF1.5442220371991127
aF1.271502665959224
aF5.0482567041897735
aF1.081159058248148
aF2.828093641205802
aF1.0276265781456888
aF4.347716186482856
aF1.481524328992947
aF3.351097548954681
aF2.033416147505397
aF2.018857191677045
aF1.0436112032022027
aF2.9405560561945294
aF3.020677043475654
aF2.2772473039954813
aF1.1706210547151252
aF1.934946947140344
aF1.4367680981665079
aF2.1836729458669506
aF1.2123339081948383
aF1.0436868624666997
aF1.0003335016385853
aF1.0172053110393924
aF4.579110730912643
aF1.4031433599563252
aF1.575561068273332
aF1.0204392364415698
aF1.418355275525258
aF2.3190585417987792
aF2.425784999320562
aF1.0000567089152816
aF1.2666877796402882
aF1.0103113556027514
aF1.2661567435128795
aF1.88025898882717
aF6.7214251162926475
aF1.2398004405686696
aF1.024558101659803
aF1.495298766508758
aF1.544371975826919
aF4.051814889213171
aF1.5688662933540933
aF1.497580376914592
aF1.7042038535474138
aF1.0119161869684
aF5.019737184756687
aF1.0321529269989165
aF2.903537936180187
aF2.917329905670803
aF1.2307448411301274
aF1.9749035805243478
aF2.665615998071924
aF3.9813434584259673
aF1.0709801454711327
aF1.4013036062390767
aF3.1840040275447183
aF2.2028692425000376
aF1.451532111866722
aF1.6966084544537208
aF1.0554474486389722
aF7.274009182133832
aF2.1731190128215196
aF1.1879285248584888
aF1.2552521724382986
aF1.3913513620975533
aF1.0005281723862944
aF1.4826089854481705
aF1.0015187206088756
aF1.2476677074241622
aF1.5088900742285298
aF7.0716484151218815
aF1.1002749213886935
aF1.1284323788439568
aF1.3360612166473977
aF1.1134255341663368
aF1.1015239611221201
aF2.253156867897602
aF1.052806760563424
aF1.0926578859062217
aF1.445622453781917
aF3.0175144202560324
aF2.7039449999360867
aF1.3839485503334155
aF1.309279633313995
aF1.0378755990291955
aF1.5431711303350613
aF1.414497655289193
aF1.3893897367932755
aF2.0095204709560464
aF1.8379229031682678
aF1.9350878976819375
aF2.323570925078206
aF1.1043691508045146
aF1.0025782186096721
aF1.5881172543667292
aF1.00160756250146
aF2.1764363667136988
aF2.6769605053870738
aF1.3391014094009432
aF1.5583635983792548
aF1.3382063506101278
aF3.4834973768842303
aF1.0464159561225932
aF1.7490237992852644
aF1.0904183244530383
aF19.59686257335703
aF1.2162153310721795
aF1.0028528258255347
aF1.9316297746792517
aF2.076118463263285
aF2.644387037876533
aF3.4464932301447075
aF1.7183372895805893
aF1.6571111534984977
aF1.4232588973363525
aF1.6874210315574454
aF1.0239591239468178
aF1.0846386618720392
aF1.3621896076488051
aF1.369928697548373
aF3.3249710499954555
aF1.5774992015570897
aF1.233411667080915
aF2.307264653969455
aF1.5172321561543056
aF1.0211570729952184
aF2.9196959824442157
aF1.57339642242326
aF4.622327064491654
aF1.0729372223687723
aF3.886446547682673
aF1.0080125168347434
aF1.0039611657585152
aF1.0926026331449112
aF3.249838818277479
aF1.014503585540946
aF1.136498411752349
aF2.235104725883053
aF1.0355097135623206
aF2.0576969467920967
aF1.6178068048377374
aF1.3360612166473977
aF3.776156139380797
aF2.2120410080758
aF2.416412222403762
aF3.0097353788302157
aF3.573615102520488
aF1.455610650581187
aF1.2266666539824875
aF2.9273100639537013
aF1.1071762783124939
aF1.0157332037302231
aF1.1706210547151252
aF1.5931312407966192
aF1.2139582719730704
aF1.4158860702244345
aF1.178737089201179
aF1.1938056193690714
aF5.243401862853624
aF1.5384639488861134
aF1.964358366390504
aF1.0363282227844954
aF1.0655259816628777
aF1.4133136685032164
aF3.154052465405167
aF1.0468663266516238
aF4.808199909043167
aF5.929712861675935
aF1.1729929995669164
aF1.1215087553020222
aF1.5931312407966192
aF1.0001472530254387
aF1.0647217114432639
aF1.2106994948999172
aF1.5518793705763099
aF1.6440785136690057
aF1.4829969695115253
aF1.0924839925874803
aF3.1055408670541462
aF2.328363520437789
aF1.4123295779154175
aF1.3285348141009585
aF1.0376042466061803
aF1.0315483555025495
aF1.5963182798189346
aF1.0150770199430674
aF2.4325506103635615
aF4.284431522705076
aF1.133987251772552
aF2.378673684401216
aF1.012195658395361
aF1.177493059516472
aF2.9220403245446676
aF1.115097644612549
aF1.0088634628661888
aF1.2821913231028594
aF1.1052500540697174
aF2.031181869441066
aF9.525403052928272
aF1.8390315376606448
aF1.0182113581682355
aF1.038971650901805
aF1.7993344618464437
aF1.5295535871106272
aF1.1637184033217578
aF8.230135301660752
aF1.1314052557101126
aF1.0823127809331712
aF1.0486752271067428
aF1.2883940989272988
aF1.1188187603535402
aF1.3159288775134301
aF1.101665832947621
aF1.827533601845911
aF1.0075466515934093
aF1.411336647204439
aF1.0251466180519442
aF1.5509548829144122
aF1.8655789583409321
aF1.2948464769475354
aF2.2831824723479164
aF1.0022818999309497
aF1.107939784096213
aF3.271125998290272
aF2.5654150023443836
aF2.7293487962185345
aF1.0032345673851402
aF1.0688524067270473
aF28.233096460783024
aF1.0266252965260831
aF2.1594774782023958
aF1.1521488763210275
aF3.9735893395944557
aF1.1655714963872854
aF1.0261734109559282
aF1.021720202718975
aF1.0012001138078543
aF1.0315063388076406
aF1.027202817159236
aF1.0078351432978725
aF2.048125107407484
aF1.2934206304552622
aF2.8327843167238056
aF5.630474288816916
aF1.1101525808489134
aF1.354691990732341
aF2.048125107407484
aF1.0955249751517673
aF2.5888429887756272
aF1.0824830507984005
aF1.0572545258037715
aF1.5256791009909088
aF1.21612369805694
aF1.4254847496330534
aF1.0426098118305887
aF1.057171982498291
aF1.0439808111762183
aF1.017444983435631
aF6.510104158580972
aF1.263861844554984
aF4.5231746180996275
aF1.9704521047611374
aF2.9547702859332046
aF1.314512863200749
aF1.1235987313430806
aF2.859930653987312
aF1.2145904130806655
aF1.0973005492873116
aF1.2279478027704025
aF2.6205175358528354
aF2.386657739265158
aF2.179565557508041
aF1.0346334611890182
aF2.866446289754759
aF1.2564133020802375
aF2.491656343958809
aF1.2221404781610945
aF5.438954225957241
aF1.215908433653383
aF1.2317441304390853
aF1.0097649671965174
aF1.0029290259315697
aF2.412657567196164
aF2.1812400110611314
aF2.074374829503923
aF2.4100998436277767
aF1.2998637966851763
aF3.0924652279105658
aF1.2984205465748693
aF2.8396556648840607
aF1.1124183235525031
aF1.2241289546964387
aF2.990785338325153
aF1.7047114854499015
aF3.0661875771296834
aF1.6593420425049703
aF2.0532367837139627
aF1.7056068286363568
aF1.6835770252006454
aF1.1150391407006446
aF1.5236322527403523
aF2.048938102295398
aF1.3163863174883286
aF2.3119398419575954
aF1.3707232738413586
aF1.5549250615377708
aF1.1941119855735542
aF1.091668678976972
aF2.167313100106731
aF1.0036044183812838
aF1.056892566418366
aF2.841566889180068
aF6.903337356750109
aF1.150713660177261
aF1.183061020283571
aF1.214792228100438
aF1.3635596352534196
aF1.0042180330778356
aF1.3984753685927074
aF1.8051744982638862
aF1.0020096265720455
aF8.397914637709553
aF1.0034059085296319
aF1.0546413593672128
aF4.7616492867942295
aF1.8607736160363944
aF2.1999850813726742
aF1.0822306076116655
aF1.0100711154936464
aF6.6507788997547035
aF1.1340579585062114
aF1.1707705142701552
aF1.48682489123237
aF1.0038779839745346
aF1.037138307203804
aF1.0333345345174796
aF1.583485644902481
aF4.182618175481336
aF1.0199085838040476
aF1.0021893375344881
aF2.3673804914380585
aF1.8154021259411106
aF1.407070431121506
aF1.013624603577494
aF1.5854655320914988
aF1.3552218992813887
aF1.0229705782497427
aF1.286367654201642
aF1.2325760404827615
aF2.2155469736753557
aF1.8088925413621477
aF1.096328334975171
aF1.2106921880683477
aF2.0486712956839885
aF1.1411761070212223
aF1.0321774984872585
aF3.5838384278720667
aF1.4982775788167795
aF1.5388171793604042
aF1.0062470834179351
aF1.0341120982582013
aF6.26922172038493
aF1.1266793958586172
aF1.0189399450051613
aF1.1315698575249973
aF1.3962923410603507
aF1.9820105819623872
aF1.0028088839611133
aF1.488458899270417
aF3.106586334154628
aF1.0694184869439725
aF7.6390073379685175
aF1.7185274294353827
aF1.6214655759582686
aF1.0006156139736528
aF2.164838610495713
aF1.7458901793608446
aF1.3163863174883286
aF2.1864691716380125
aF1.255201371662288
aF1.0747067639625667
aF1.1753488057178636
aF3.4285533265584593
aF3.5875287994739624
aF6.2394224590864065
aF1.7464951188068256
aF1.3590346898730823
aF1.2230491321930022
aF1.2130193892500178
aF1.0319475490369048
aF3.1148663708279756
aF1.3108788057202274
aF1.2183142276574135
aF1.0165749130030068
aF1.0854803398546065
aF1.4051239200558419
aF2.455359926218002
aF1.0919575229571845
aF1.1763082828330074
aF5.149600446756691
aF3.526126199804027
aF1.7437585901673684
aF1.0148709132133025
aF1.8114916887618444
aF1.2653564723409967
aF1.9195628821637376
aF1.0030803790296048
aF2.6857847746815375
aF1.0345477986061362
aF1.3589034059385994
aF1.2434812822938262
aF1.2225678294261078
aF1.2989815893009482
aF1.4245003199792416
aF1.3879573899007995
aF2.4656488444190403
aF3.1063036579103116
aF20.249665454629493
aF3.0830107147837915
aF1.6252523664666076
aF1.5442220371991127
aF2.0685027435461847
aF1.1860867893103344
aF1.6083888595519364
aF1.3616145589244601
aF3.1489841904820053
aF1.0204310037798914
aF1.007909448727375
aF1.0010110789504034
aF1.0536215044292048
aF1.093797181926487
aF1.254894535980752
aF1.444134215268018
aF1.005072932044382
aF1.0255517602829476
aF5.598730132186362
aF2.4125593411033344
aF2.149613910487631
aF1.0143476697219507
aF2.4857179035480423
aF2.8513444894101054
aF1.0359188547507951
aF1.4528975848232024
aF1.212564374314709
aF1.0368232321449695
aF1.1110692667823312
aF1.019136201030747
aF4.92012462606528
aF1.0113057232195697
aF1.2803100390517284
aF1.0354924717003393
aF1.1246716843097169
aF1.2156837671997038
aF1.0337022380853267
aF1.189808022704507
aF1.0332959436575821
aF1.1529712107536654
aF1.061420690618905
aF1.3249210079815381
aF1.0779033415701391
aF1.0206407173010272
aF2.8256611119635524
aF1.008124394896398
aF1.2300493121678304
aF11.93163325508695
aF1.0575518581379453
aF1.0034868863189041
aF2.970760178773755
aF1.1462784337135206
aF1.0503009676759505
aF1.048607276905986
aF1.8462972035895866
aF1.019136201030747
aF1.3279868469339093
aF1.188068540884994
aF1.0323835278535454
aF1.5030721853962243
aF2.73851513358169
aF1.3866292151209776
aF1.4706109108746317
aF1.1292068754674458
aF23.15484874469719
aF1.5719354468650948
aF1.460272396173222
aF2.349769267481796
aF2.80174161773051
aF2.6340801854652103
aF4.490009411235213
aF4.020607760654828
aF1.3040548018808213
aF2.8737995526843587
aF1.0724940696792284
aF1.9887371772725955
aF1.4802281829951647
aF3.865293603396002
aF2.1663272418863513
aF1.5714135009494352
aF1.0163659922049444
aF1.4132662961413485
aF1.0228167410656062
aF1.0056764106575495
aF1.2049109826068465
aF1.007593136137002
aF3.659618627485919
aF1.2031443504614778
aF2.442318980216078
aF1.4302802739156169
aF1.1794831098628302
aF1.0703095664469349
aF1.8344895675086197
aF1.619279005021345
aF3.4647406252170625
aF1.110980444918311
aF1.0009951747056935
aF1.1983981655737104
aF1.0866311091524172
aF1.5104794651276552
aF1.441561314705173
aF1.065648668313054
aF1.9445065069190508
aF1.662864056102668
aF1.1763082828330074
aF1.0263203591659198
aF1.9227067154960005
aF2.524588020843062
aF1.0603186773980822
a.