(lp0
F1.7162108216678846
aF1.6582478537200582
aF1.0108546628476167
aF1.5158026290224018
aF1.2785872686382758
aF1.0771764269625526
aF1.0429891563129985
aF1.6510920242778957
aF1.1036733618031513
aF1.016376364806171
aF2.656444788715168
aF1.0088712986038115
aF1.0355602310982557
aF4.300968095331593
aF1.616199214594793
aF2.17085260405388
aF1.0465486470212844
aF2.7021630239480827
aF2.096327658537062
aF1.008873979879372
aF1.0144217418098085
aF6.137745432580567
aF1.3145669846565673
aF1.0155563965845262
aF2.21492500527859
aF1.3123092784590105
aF1.0200178162300446
aF1.4729639573340214
aF4.184735257423253
aF21.21872970040146
aF1.1031886717900468
aF1.0017366303125586
aF2.818928079762915
aF1.0412980408730992
aF1.207632574948219
aF1.4637894724139693
aF4.180907970716145
aF2.551084478321
aF1.312525063167299
aF1.0017904208343689
aF1.0595413736697765
aF1.0543340079186083
aF1.0029461859867743
aF1.5316635747833047
aF2.356851473497026
aF1.59835824978831
aF2.7900235290893005
aF1.4707669331919784
aF1.4379793330139479
aF2.370301239379815
aF1.467855321658014
aF1.145149647906247
aF1.0067290025437385
aF1.4839494149328636
aF1.0810530182331415
aF2.1383748667294173
aF1.2209417525871311
aF1.0024352209942655
aF1.11286740690241
aF1.148354042297227
aF3.617765178842013
aF1.0074390443616967
aF3.486057227309774
aF1.18903657117269
aF1.0261734109559282
aF1.0085520661701284
aF1.4935518286448313
aF1.0236795597778658
aF1.0162980228433403
aF1.018527328021253
aF1.583485644902481
aF1.499544138061573
aF1.058317083174637
aF1.0063665484800917
aF7.13970501647916
aF1.1408792660245362
aF3.5875287994739624
aF1.2466450623248715
aF4.057906276933339
aF3.8929796091170012
aF1.119089193656284
aF1.8260050015773155
aF1.3979740975571142
aF1.132530976639611
aF1.6237176820523396
aF2.280116887284326
aF9.099273099229517
aF1.0468209031924054
aF1.1245503316413206
aF1.7204797455850518
aF1.333433004004753
aF1.2795214519410179
aF2.7352889352407326
aF1.1617029851459462
aF1.0179607427368587
aF1.1266295811840346
aF1.011020602644282
aF1.6412138898589899
aF1.1706210547151252
aF1.2497057950661359
aF1.5756627246953192
aF1.057171982498291
aF1.0011468875232705
aF2.5317631501038638
aF8.370517879258703
aF1.1239179989127177
aF1.4957961149233703
aF1.3616145589244601
aF1.5829607713585574
aF1.3457443387160302
aF2.710039687562989
aF1.0188753818552316
aF1.0373971000564166
aF1.0741883511814596
aF2.626292792526864
aF1.1682348985145625
aF1.5006853423702096
aF1.290699672502274
aF1.0973005492873116
aF1.8227733080708632
aF1.100044365771419
aF2.881512205568523
aF1.0134817898918822
aF1.161985785803849
aF1.0858335893961286
aF1.5688662933540933
aF1.0121374223079111
aF1.3733177465296385
aF1.0926026331449112
aF1.030766287267782
aF1.0748229688124074
aF1.1299890829755084
aF1.7322726424437649
aF1.674775101765434
aF1.149726832408184
aF2.974251790737028
aF2.5006814526477235
aF1.6727449677513373
aF1.0080125168347434
aF1.3589342314643031
aF1.2240896746470593
aF1.0359115234927014
aF1.0796559255457308
aF1.6036832974257835
aF1.0982042278093185
aF1.0092859639671903
aF1.2097440105355743
aF1.071397517742857
aF4.133204758410773
aF1.3731422737375918
aF1.6489245230452565
aF2.0576969467920967
aF1.2442703129469121
aF1.0152577798658153
aF1.1626374223141633
aF1.012792568942693
aF1.011955021589361
aF1.27798658693122
aF1.0042946248627957
aF1.8661502729520083
aF1.2073594356238282
aF1.0315063388076406
aF3.3085307742573833
aF1.1377307848228133
aF1.0235086845061956
aF1.2500358335562598
aF1.3425516535333688
aF2.176178090304261
aF1.5160546831010369
aF1.783700495258549
aF5.539871420358012
aF1.4978812373467483
aF2.675399281337502
aF1.1812271605266613
aF1.4847767875963096
aF2.076449491515829
aF1.0351409361643056
aF1.3020219502015231
aF1.4395202443563302
aF2.4174401177357554
aF1.0040502603584838
aF2.1418851989317433
aF2.072772865470816
aF1.5234443548331111
aF1.5724708416162314
aF1.2118898752748621
aF1.0107040920077783
aF1.3485870250361118
aF1.7296107324228425
aF2.6807638900315505
aF1.5317076310994056
aF2.5647842860217036
aF1.000082062172241
aF1.0255710573159271
aF1.1348057970764416
aF2.6385538965036424
aF1.8712816925561953
aF1.0233124693046525
aF1.0026091367441845
aF1.2305291918514958
aF1.0852319980441936
aF1.1598482204586138
aF61.31006481257771
aF1.3591055322795094
aF1.8045244664779472
aF1.3622225271471555
aF2.841566889180068
aF7.951530329309799
aF1.1232250683739973
aF1.4949342079439574
aF2.7261314889802053
aF1.0012865870463554
aF1.1812702677393283
aF6.09004346831246
aF1.0917572884334044
aF1.0437299603616659
aF1.3161951917140688
aF1.5275831952292027
aF2.055315248718839
aF3.0562828160746087
aF2.194154451950303
aF1.010880018816893
aF2.3349700250796706
aF1.0790454882931506
aF1.0227472574572665
aF1.9925778723292464
aF1.4253598410817485
aF1.2374044288650063
aF1.2836622089719365
aF3.4360059383358896
aF1.9608722944782722
aF1.4603735006458243
aF1.6241727408542455
aF1.0550044601168713
aF4.19732405052523
aF1.4114292144160427
aF1.3243183420883593
aF1.0803756645350155
aF1.0204310037798914
aF2.891553687159678
aF1.0951136828963752
aF1.0789669110643691
aF1.6249193650734552
aF1.0361165692155863
aF1.1083871914034815
aF1.316604573467088
aF1.0432099979581742
aF1.825531872588859
aF1.0045914013846453
aF1.7299866449467434
aF1.3619783001798118
aF1.2226390024371183
aF2.355023528422272
aF1.0955249751517673
aF1.321533291615015
aF1.2579927168984026
aF2.0992574062303113
aF44.51229836487865
aF1.0298131452356134
aF1.4609484533394694
aF3.288593011953076
aF1.269738274177794
aF1.1540274796511691
aF5.0423189208781345
aF1.0502466883095096
aF1.8482198404743782
aF1.0444577338775214
aF1.0007346175936689
aF1.0068964846134096
aF6.995220499986242
aF1.1268330414871888
aF1.0709737334557723
aF1.1465394652262113
aF1.0301434592040086
aF2.3673804914380585
aF1.0293760591072183
aF1.8005762487288082
aF1.7926164184239175
aF1.0323365889511844
aF1.0529834241942317
aF1.846207289318711
aF1.4655670443192301
aF1.1188187603535402
aF1.244147664839461
aF2.2921859503176183
aF1.6822792697457758
aF1.0782474021733384
aF6.953697107846369
aF1.6326874459065697
aF1.3930900630349392
aF1.3266161341882856
aF2.0253148683222877
aF2.8648792384739545
aF2.841566889180068
aF2.356851473497026
aF1.7639999485002795
aF1.05682868408899
aF1.0032950914805239
aF1.1103096765221971
aF2.4042731957822507
aF1.0115978227990554
aF2.289941427373501
aF1.7832094629561872
aF1.0065561197883643
aF4.088827532038952
aF1.074377235363063
aF1.1371121068708945
aF1.02845288161081
aF1.1280166621486851
aF1.0902045209143225
aF1.2764117149238525
aF2.875344309748788
aF3.253274875233793
aF1.3099258193299987
aF1.84111440056009
aF2.1241348701034237
aF1.6363773572557934
aF1.095656785211963
aF2.4870911337593458
aF1.079039394601639
aF1.0020096265720455
aF1.0199485676252906
aF1.3604602987076255
aF1.6069225631810848
aF1.9116283171626434
aF21.10111147506723
aF1.5577860137091466
aF1.163246566817623
aF1.0028088839611133
aF1.6252523664666076
aF1.0020041448610917
aF1.6275603453960823
aF1.1088622901560128
aF1.16987116747828
aF1.101143748460562
aF4.666699927482001
aF1.0560023758776118
aF2.881072538031236
aF1.083046770976638
aF1.13053851477266
aF1.9631227355759178
aF1.8103727207950697
aF6.961349134323964
aF6.608216360200121
aF1.6417615329609072
aF1.7730802415814653
aF1.8420825203561768
aF1.1439522506280315
aF1.0595507192584859
aF4.039124713056853
aF2.2191074697191677
aF2.511509650671491
aF1.1207006847983974
aF1.0407718135931332
aF2.4282798315919543
aF1.0505127614656218
aF1.246175077579611
aF1.0130518309952503
aF1.2359120386911646
aF2.925525280907577
aF1.1793142091731799
aF4.506222502164725
aF1.2089109600162842
aF2.026025291768045
aF1.0011244752217818
aF1.748085506342963
aF1.0014541228071185
aF1.3293530267933167
aF1.03369297466616
aF3.648346641837865
aF4.388127818321934
aF1.1195894340692125
aF1.7410149442144527
aF2.855546830625686
aF2.3098629355531446
aF2.167924076561781
aF1.0511555726880015
aF1.053485485429954
aF2.7481325353833967
aF1.2097140323645135
aF3.776156139380797
aF1.547800379402681
aF1.0543340079186083
aF1.0329751815285806
aF1.2371127480018147
aF1.4282406800503074
aF1.0111919445195128
aF1.9091987326456576
aF2.354861351201477
aF4.774101402751918
aF2.7501556106504683
aF1.1781213695223696
aF3.351097548954681
aF2.406161321252525
aF1.3097701910410289
aF1.1981598731384513
aF3.0830107147837915
aF1.0071245156467117
aF1.0104056231777663
aF1.1629033506421165
aF1.041568079513672
aF4.369241575956406
aF1.0171147137751337
aF1.6822792697457758
aF1.1243886972813122
aF1.3680380033283581
aF1.0658933549650362
aF1.0911366214109142
aF1.0127354797161803
aF2.4275393108102126
aF3.479848500224574
aF3.3359141819247076
aF2.874795080981571
aF3.4246969763570925
aF1.1458191640610718
aF1.0006020644649087
aF1.0016148911774363
aF3.5258876913772825
aF1.3087415210138122
aF1.089618747569967
aF1.3542437975537778
aF1.0421552766939055
aF1.0883655707519362
aF2.9841234639091505
aF1.0048657691936798
aF1.0619086795947394
aF1.3696783267388493
aF1.7844135763833682
aF1.0293760591072183
aF1.0118218533975911
aF1.4598723847123936
aF1.0253245308702372
aF3.2442927501724244
aF2.7474297569658397
aF3.727822176190761
aF1.2373759293932327
aF1.0737815394987458
aF1.0986200838412834
aF1.0350980119232867
aF1.0069063120390376
aF3.819614809389392
aF1.0316591797736399
aF1.1657336087816854
aF1.343625205110337
aF1.2871117265735077
aF2.7107798452113077
aF1.225175276275284
aF1.5050507451390953
aF1.8910045979304138
aF1.3586004463741919
aF1.1356070425598772
aF1.414497655289193
aF1.1085079513784237
aF2.913192457193273
aF1.2373031150204281
aF8.690140642414137
aF2.756350099994244
aF4.660183857802527
aF1.2216530297175794
aF23.951428974833128
aF1.4677460941779772
aF1.1589155142741259
aF1.018527328021253
aF1.2066443139748722
aF1.590651101872181
aF1.104075095398721
aF1.4143809490728976
aF1.1716539370949939
aF1.6871644718090237
aF2.5845659689839082
aF1.1958209134759787
aF1.1463380469550506
aF2.648762541176837
aF1.2363673046309196
aF1.0655257003308165
aF1.0395217645205108
aF2.855348274051142
aF1.9487487461032846
aF1.0133576575467966
aF1.0026009664339508
aF1.0297762231705747
aF1.8931359997343693
aF1.007776202951959
aF1.01715956202459
aF1.037493179034404
aF1.3645824637837927
aF3.7823632335360715
aF1.7293829698431935
aF1.003061686963961
aF2.995004646483628
aF1.4639311577338099
aF1.484187331965276
aF1.3711254986263266
aF1.173898638750377
aF1.0219781945062734
aF4.381372366384079
aF1.1952207167499536
aF6.543230463028983
aF1.1763082828330074
aF2.2153887695117453
aF1.063077742027674
aF2.5169015812146194
aF1.11383072399183
aF1.0033884493168488
aF1.006991855673091
aF1.0415246565554703
aF1.1059587184054136
aF4.800265651411396
aF1.610838964390432
aF1.2889963799365243
aF4.399076027051075
aF1.0270813608527958
aF1.1280166621486851
aF1.4050190299184628
aF1.1817949220296415
aF1.0213645948858454
aF1.475817476370422
aF1.0098216556999402
aF2.323570925078206
aF3.424081724324664
aF3.583900978133634
aF3.993145761575608
aF3.0114171080668974
aF3.597274764768512
aF1.752405959537192
aF1.9154240708339403
aF1.690326836933441
aF1.0241980071641736
aF1.1198474034093047
aF1.8483136357821943
aF2.14073021290823
aF1.6607790304857686
aF1.54537921345293
aF2.154184808284467
aF4.682032077306009
aF1.2601411245268006
aF1.9176084578652701
aF1.7565244967588862
aF2.417247006975087
aF1.8721210486422784
aF1.2980768858310694
aF1.3192117496585944
aF1.0581899760185378
aF2.6338991421277074
aF1.7760523799401027
aF2.703528951921291
aF3.341015963078255
aF1.6258694668508822
aF1.0436112032022027
aF1.1218836478819243
aF1.5392893015083018
aF1.0330921720083182
aF1.034659719887532
aF1.0150770199430674
aF2.363432985405951
aF1.3866292151209776
aF2.5553245574237637
aF6.88273572138063
aF8.983324296659962
aF2.8617011197685343
aF1.4194033683096974
aF1.0278133237995386
aF1.2253532400526705
aF1.1957390751281063
aF2.4268467879099975
aF1.1726598525452705
aF3.2810736018189632
aF1.01538417224897
aF2.406496342948118
aF1.2529539274527677
aF1.1810315353126422
aF1.8019992408462586
aF1.026368898051859
aF2.2716057826299134
aF1.2803551626251883
aF3.617765178842013
aF1.3027948305541681
aF1.5364058496573156
aF1.0071070780206688
aF1.0990305497375623
aF1.0318889482816664
aF1.5469149472506285
aF1.0111184661851005
aF1.1038028591995181
aF1.00811918908318
aF4.141537713589038
aF1.1832645074025419
aF1.399134192382938
aF1.085962263690984
aF1.0580709335440737
aF4.417904542317716
aF1.0796559255457308
aF1.3477941440303718
aF1.2467993553019943
aF1.1221907998045457
aF2.3018254760111643
aF1.0174170736078414
aF6.318868478530547
aF1.007054108116425
aF1.0045461064716974
aF1.0098112646971884
aF1.1561397695896953
aF1.6274113171523277
aF1.481524328992947
aF2.798369771909447
aF1.3246753307049826
aF1.363964725502919
aF1.257908540092258
aF1.7803036222801918
aF5.489288112435949
aF1.4152711438562402
aF1.2471165557666786
aF1.4110288425474544
aF1.8163605119181876
aF2.3150266995204873
aF1.0165501569781774
aF2.1964250052235887
aF1.1247115066967988
aF1.4126997170189548
aF1.267564443587601
aF4.051814889213171
aF1.1895530633129057
aF1.0596200881489117
aF1.9323994361462957
aF1.5295955245002053
aF1.0541672797778363
aF1.0322331994339655
aF1.0978556396995065
aF5.046166316342691
aF1.5560801415108103
aF1.1168314154729038
aF1.5760449607731095
aF2.195464775569507
aF1.212564374314709
aF2.3140729257566433
aF1.3405710247647138
aF1.205453757292388
aF1.0556835457821636
aF1.0126839082352876
aF1.599878039231051
aF1.5878206087363484
aF2.725977643414291
aF1.4032793040161322
aF1.3094586748754597
aF2.8589310208768617
aF1.3319513509513592
aF3.6591331414584265
aF1.0007643717782688
aF1.0333345345174796
aF1.602325930709393
aF1.8602993503679905
aF1.1171098781966948
aF1.0131648805894093
aF1.0119161869684
aF1.8293201643785273
aF1.0306430640743718
aF1.6325897270038574
aF2.4818911347886132
aF4.005645618095145
aF1.1324441004649608
aF1.553290118213781
aF5.978093299031441
aF3.2549152654801516
aF2.3057721329686207
aF1.1530782401517023
aF1.5241115900286453
aF2.498254022363453
aF1.0182113581682355
aF1.5000639377149545
aF1.7012282657734352
aF2.3448562628714194
aF4.220674239927957
aF1.0012653775418112
aF1.0228167410656062
aF1.000231826501524
aF2.071367121460183
aF1.0010555603917675
aF1.4480818852708925
aF1.0262280199036402
aF3.081002912825927
aF3.5700956312800405
aF1.136498411752349
aF6.0475236777761525
aF1.2737605906281757
aF2.290686527458436
aF2.7416692286657263
aF1.109695146827027
aF2.352583655034734
aF1.9424568897392593
aF1.0555169331009524
aF1.340167790786631
aF1.2145904130806655
aF1.0383883550765138
aF1.0012548143844695
aF1.1467086544003597
aF1.038971650901805
aF1.3198070676025335
aF1.3438584389531574
aF1.370875886400626
aF1.4339050370365471
aF1.3072225672175048
aF1.4072301190631586
aF1.7357502320158238
aF1.7796055299970217
aF1.6872897946227996
aF1.189808022704507
aF2.252027371740291
aF1.5533194194349809
aF1.3693510736205832
aF2.7776766380495954
aF1.267616548259394
aF1.0579943881254334
aF2.73851513358169
aF1.071397517742857
aF1.205642510619448
aF2.7554145222452995
aF2.7962310342084757
aF1.0772593682582088
aF1.2049101611676667
aF2.7583468865952616
aF1.302249423735411
aF1.4594310150562635
aF1.015803276431841
aF1.1672589338096278
aF1.1687468456733083
aF1.1499501079639325
aF2.6012519510180465
aF1.1266352128264028
aF1.0903662637862095
aF1.3780420326576834
aF1.0214519949348364
aF3.579324393382283
aF1.0089769085020461
aF2.5232711209654592
aF1.0157332037302231
aF1.4413454547347329
aF1.2301545567956442
aF1.99449303921191
aF1.0275129137832257
aF1.2892467419084073
aF1.4141032738666208
aF6.375325617641317
aF1.7677854277200076
aF2.156694700175052
aF1.9448406776668161
aF3.0911790341736918
aF1.0054696370886131
aF1.0177990527207785
aF1.144830476932649
aF1.4658905255997627
aF1.0585699602509004
aF1.6785081490075935
aF1.3082339260689102
aF1.0788285444388326
aF1.2029302426870396
aF1.4973415727295505
aF1.3680958916462969
aF1.6756406252218703
aF1.4298992083473212
aF1.4571540356822186
aF1.7650665606163782
aF1.0007642501353469
aF1.5807206956912792
aF2.418522092715805
aF1.2426636776503956
aF1.3200193815646473
aF1.254894535980752
aF1.0922857464537814
aF2.198739148177282
aF2.155316834896448
aF1.8727715303920642
aF1.4018881794723443
aF1.168856450797056
aF1.0201122368792341
aF1.2599036449188126
aF1.5833965668102603
aF1.2974260879751334
aF1.0132096330996898
aF1.151518062842385
aF3.599754095319217
aF1.269738274177794
aF1.0036604085722973
aF1.07185819446437
aF1.0757964336533126
aF1.0007258660241123
aF3.5412547143513904
aF2.9571902403722503
aF1.3370077996636451
aF1.1066028844699094
aF1.6564147277435517
aF1.323839967567249
aF3.3673287320201992
aF1.8823495673653339
aF1.7919030416293904
aF1.5665011208815922
aF1.0895104841319316
aF1.2667364420850917
aF1.1343176811716384
aF1.1653689405175216
aF1.0054082418946664
aF4.192467761934803
aF1.5034197583816005
aF2.4125593411033344
aF1.027202817159236
aF1.0789666881515512
aF1.5453591654458319
aF1.978956667373261
aF4.923415239199969
aF1.3247448935912476
aF4.054182064073983
aF1.0808075188820612
aF1.0022449462887144
aF1.004232989091885
aF1.1416065684008545
aF1.0909241499747515
aF2.525042440415309
aF1.0011648569940317
aF1.5730449521011967
aF1.030766287267782
aF5.162895467419937
aF2.57413303068039
aF2.422648989380282
aF1.2040541825049345
aF1.2139582719730704
aF1.1120844154014922
aF3.1784031837675846
aF1.3406825332391215
aF3.7503776787290763
aF1.7049559782627868
aF1.057171982498291
aF1.2456255267048524
aF1.4249295483782025
aF1.4286107388771905
aF1.0258633625487514
aF2.68931722774719
aF1.0390378779713074
aF1.653730290144182
aF1.217909536333405
aF1.7451051140703673
aF1.9227067154960005
aF2.6887003869500026
aF1.9437978759790835
aF1.7687078359401103
aF1.507852631718379
aF1.308621159001602
aF2.925525280907577
aF1.5514087546649606
aF1.2689593543488087
aF2.3058216729609864
aF1.9777155241215216
aF5.327734632430443
aF1.0741801172633751
aF33.09051034368005
aF3.2052125379983654
aF1.0329751815285806
aF1.7679800888027366
aF1.0024468107941575
aF2.6978637798160583
aF1.0019129965802602
aF1.6512972894630116
aF1.0201122368792341
aF1.5694743102347966
aF1.2403876892982533
aF1.8603717025967637
aF1.1992183580694635
aF1.4330967315160417
aF2.1729457220495494
aF1.2341096733251489
aF3.930467520154742
aF1.2168960821266115
aF1.0239896613694521
aF1.1188919240754105
aF1.0238848319962193
aF2.5405739805032868
aF1.00232474767716
aF1.2917726065688566
aF2.731287753366094
aF1.0637338720637852
aF1.1925718262597595
aF1.0047422757478977
aF1.8262575933725482
aF4.2331653666070865
aF1.010995222092259
aF2.9433156649694907
aF1.0425573085512188
aF1.0584483307852333
aF1.59502199043005
aF1.4178697738581107
aF1.6377982015893655
aF1.2887046946041107
aF2.5753878774167442
aF1.5963140289379365
aF1.1706152630606634
aF1.0296312928129299
aF3.5476544864962483
aF1.0459910457608503
aF1.064414867082756
aF1.786919468384982
aF1.6430551252027001
aF1.1952576070032956
aF4.097809858737767
aF1.056892566418366
aF22.162676701724113
aF2.021300887491418
aF3.2905617291170235
aF2.126257555789477
aF1.0004295427447634
aF1.8638141765724496
aF1.998643821629524
aF1.1182657120021837
aF1.0390378779713074
aF4.203096939337362
aF1.4534640939492791
aF1.3043848917167256
aF1.2097140323645135
aF2.50810951828192
aF1.1921669919766398
aF1.021091018637038
aF6.769562073260547
aF1.567591496929685
aF1.0395769169029057
aF1.4300345860415742
aF1.8694886594654128
aF1.6969621189456976
aF1.0057653120110066
aF1.2666877796402882
aF1.2493619498107964
aF1.6546047247363729
aF1.484563517887488
aF1.1552549344856724
aF1.0489224632738388
aF1.177493059516472
aF1.0138968345858292
aF1.1647172925007203
aF1.640036941534876
aF2.149584658901051
aF1.0278422991484564
aF1.0103117790301621
aF1.381726979480271
aF1.385987816524449
aF3.581948126488831
aF1.0181240417525592
aF2.3310723319890103
aF1.4357127979863462
aF1.010070593061466
aF1.011565780648714
aF2.6443604131535743
aF5.1766805021774704
aF1.0201624040873254
aF1.2667628058869524
aF1.5346925244599348
aF33.498062401117
aF1.1868587622802704
aF1.085962263690984
aF3.7900509029607212
aF1.2750878081026558
aF1.1212613022944309
aF2.8856088613866344
aF1.1629402189138704
aF1.0781554054224611
aF1.5989233396299807
aF1.008290948953181
aF1.3258267731559443
aF1.136289638326661
aF1.2599036449188126
aF1.9373172201199411
aF1.516447265464635
aF2.3240378999676135
aF1.8560520121946396
aF5.540999718781244
aF1.1863125720108099
aF2.0844672584342394
aF3.8256743781325455
aF1.1233314778433725
aF1.5361542399949821
aF1.0023096998752485
aF1.934946947140344
aF1.1086720549568019
aF1.6897075246718896
aF1.3465971212175645
aF1.2145904130806655
aF1.0468921329938758
aF2.2850474844590356
aF1.0017349784167753
aF1.0558507103989585
aF1.200528221297825
aF1.2025676246692685
aF2.1666040545210423
aF2.9811439705897205
aF1.095792158562426
aF1.6387463269763494
aF1.001399714684157
aF1.045104494118778
aF3.9711839065431613
aF1.0030608748417298
aF1.9710165870851124
aF1.7094566718118924
aF1.00402950861069
aF2.1269200559694763
aF1.7189406288991722
aF1.1938056193690714
aF5.529344323541568
aF1.3460950219721453
aF1.0008119468169372
aF1.000231826501524
aF1.0434737501921048
aF1.9545992122813411
aF3.976712149112079
aF2.3931020471976914
aF2.0318371409654716
aF3.760725701269753
aF1.1448226346379489
aF1.0009492812676344
aF2.436622444734964
aF1.8910813450883657
aF1.6027489427648487
aF4.100550648856388
aF1.156161725848757
aF1.6047853574043718
aF1.0685800628932487
aF1.0248797421742277
aF2.8035810976585838
aF1.045104494118778
aF1.3478420351691764
aF1.1579903035319874
aF1.413685362880768
aF3.5463719414987884
aF8.604866483132746
aF1.2670746327635853
aF1.008124394896398
aF1.095792158562426
aF1.112446823970953
aF1.339023453285858
aF1.0413116311183965
aF1.2308629213040962
aF1.089705789915557
aF1.7309234652384615
aF2.022271261847368
aF1.0202545878663558
aF4.4123447315360975
aF1.1388167711561223
aF1.188570979401894
aF1.1445107430965504
aF1.6568589009077679
aF1.161096238234481
aF2.0937922687365997
aF1.3129977351765285
aF1.3822004136560242
aF1.1044343333350295
aF1.6133770491591188
aF3.2678376833531617
aF1.0168948316859632
aF1.1874544561350375
aF1.436876062683539
aF2.820166549920549
aF5.244798164827522
aF3.3518708098021746
aF2.2867282160635423
aF3.401053637217093
aF3.8134609227548903
aF1.2347921493963263
aF1.969784748417336
aF1.392323694491553
aF1.1363013519322522
aF1.4387628689009075
aF1.2497057950661359
aF2.5120326738017473
aF1.1596241886619458
aF1.047019658603033
aF1.7977167166879238
aF1.7876431815153389
aF3.0734865772566025
aF1.0239933744664587
aF5.452003215283895
aF1.2362052623755977
aF1.9597856386034957
aF2.307264653969455
aF1.111129307920139
aF2.416704440264357
aF1.875250191936472
aF1.0789903360140676
aF1.6471695523525534
aF2.3524127827308736
aF1.0447547996022326
aF1.1009794894497922
aF1.2093470394843941
aF1.2293157868139484
aF1.0642553487595348
aF1.099841275588451
aF2.027420163592938
aF1.0715169088293324
aF2.551508678547474
aF1.9813756766215063
aF1.4949342079439574
aF1.1719783852104864
aF3.2953874399147525
aF1.0031408733606137
aF1.0825775730187106
aF1.0753548902223662
aF1.148337681977409
aF9.36825739496972
aF1.3993589080078292
aF1.1171315176672072
aF1.1636387465089328
aF2.482231900946877
aF1.1118529853115573
aF1.1782666594931053
aF2.5484949234756886
aF1.5660417542814007
aF1.6318845117924639
aF1.1009951670231224
aF1.0737706908890596
aF1.0032348629825325
aF1.4952136560384497
aF2.0098017815329743
aF1.056117226013182
aF3.8120957325209726
aF1.0413022799761802
aF1.5059462003494328
aF1.1084030722107883
aF3.022052210856448
aF2.789067151558128
aF2.1605403828270733
aF6.5692249623719094
aF2.29292765435324
aF3.152907262293276
aF2.928981967225788
aF1.338310024714672
aF1.6757747236331157
aF1.0723317258718852
aF1.136459385592161
aF1.6088893870817966
aF8.304743425871361
aF3.4796188160863557
aF1.9213767796258825
aF1.05848633181906
aF1.5412172691445918
aF7.781510323169842
aF1.8977561842306707
aF2.8390808031529686
aF1.1315698575249973
aF1.045415794443681
aF2.5539868401072994
aF1.3261118788300963
aF1.0298256343716554
aF1.0652688384583506
aF1.7593594383052542
aF1.1671506300767052
aF2.7352889352407326
aF1.0723702948682015
aF2.0880151291997584
aF1.0688524067270473
aF4.764178312296737
aF1.4527686925836478
aF9.132702341683014
aF1.02315145775043
aF1.220260412748244
aF1.3586004463741919
aF2.6012519510180465
aF1.7974661067065063
aF2.855348274051142
aF2.7513010225314347
aF1.2552521724382986
aF1.073041616946921
aF5.373808815968844
aF1.0023741771100207
aF1.2162096958507513
aF1.2371589786815116
aF1.097571330428799
aF1.1223327138920516
aF1.1993821643446227
aF1.3543526741772611
aF2.323447610425631
aF4.041771190191157
aF1.3887568269141541
aF2.676971880927114
aF1.012284224835282
aF5.120853859863045
aF1.3366673505728748
aF1.0835563177268743
aF1.0588963805320286
aF1.1512291011347062
aF1.2005555494627427
aF4.1890832467205135
aF3.5887923740961547
aF2.062063585941792
aF1.3100917976151554
aF1.1006092023750418
aF1.5133665772365972
aF3.731807922877849
aF1.6069356927450638
aF4.1163983871374725
aF1.016313088709402
aF2.0687116484697348
aF1.0919575229571845
aF1.0564132074085377
aF1.044345791866258
aF2.5676852883694825
aF1.432018376177124
aF1.223710393190851
aF1.2667023666135189
aF1.095035804666663
aF4.831107196364248
aF2.3326918174190605
aF2.0687116484697348
aF1.09766121193308
aF1.1446240549974454
aF1.3527743804938717
aF1.0337339682895967
aF1.2974922078705982
aF1.1716699569996591
aF1.0770994844667798
aF1.0022449462887144
aF1.050752567003702
aF1.0251578734706497
aF1.3432819720254023
aF1.0126473841161074
aF1.043225840085345
aF1.0083460571742207
aF1.5716191115513451
aF1.4684253114986785
aF3.6770683892071756
aF1.5124392732528644
aF1.503509797246873
aF1.3598594406485238
aF1.4052559962681708
aF1.0604543576724386
aF2.8087015096450942
aF1.641803443907195
aF1.0328303976002626
aF1.0333822101247085
aF1.4110288425474544
aF1.2422858266455792
aF1.9999356670980584
aF1.2449805081361653
aF2.57733846836919
aF2.090940057738387
aF1.0726454516556982
aF1.0010997145484035
aF1.3302513644388383
aF1.6061592144487034
aF1.378267393527379
aF2.2566752021922656
aF2.825440417974624
aF1.1596241886619458
aF1.5236481013845762
aF1.1036263371746295
aF1.6902469659674413
aF1.0267037763207807
aF1.9027182709201338
aF3.085809811287539
aF1.0098753477801097
aF1.6060598575966012
aF2.0844672584342394
aF1.0152080096021814
aF3.592828859215176
aF2.3058216729609864
aF1.3053949165742402
aF1.033943769788283
aF1.4822001113307854
aF2.0255487379379367
aF5.154203677952642
aF1.4604073508608413
aF1.0020609722823142
aF1.1036532635102665
aF2.3326918174190605
aF1.5110245417781256
aF1.6007941610243845
aF2.128737298617939
aF1.0650925428182942
aF1.2821061043250088
aF5.573960482196845
aF3.5823747686532688
aF1.0081468960381215
aF1.1940509450716454
aF1.0487428046631462
aF3.1055408670541462
aF11.198169844776801
aF2.7779623596980128
aF3.2271077825049144
aF1.0005864698378877
aF1.0368746179184871
aF1.7618800620297488
aF1.4006685762485116
aF1.2633918781339093
aF1.7568381353057925
aF1.222347233407709
aF3.2642435388202613
aF2.259538160934733
aF1.5599500752015065
aF1.0266748296903916
aF1.484281187530956
aF1.4152711438562402
aF1.3819520582472677
aF2.5065773950409067
aF1.0202545878663558
aF3.6419498089652502
aF4.511068805176489
aF1.0404218574045816
aF1.2924484596882555
aF1.3646969688473323
aF1.0899909888702806
aF1.0668998949136177
aF1.0706464126759239
aF1.027195851162384
aF2.155184590049836
aF3.673745948102383
aF1.010729963682116
aF1.0828850455106307
aF2.155757878751209
aF2.2496439972487834
aF1.853347416669204
aF1.3121116263043096
aF1.0765902704592525
aF1.1941119855735542
aF1.1373769531192675
aF8.15257496524219
aF7.68778080636543
aF1.0515913230865617
aF3.727822176190761
aF1.428141043869796
aF1.2359120386911646
aF3.7047176420364236
aF16.47862004205793
aF1.6147282591878909
aF2.4089409117531573
aF1.301564215750975
aF4.381245118930482
aF1.1471790050502986
aF94.42007466331906
aF1.6665169788386658
aF1.7760523799401027
aF1.002750302759914
aF2.1288387963004696
aF1.1487291834432045
aF1.770849654888229
aF1.2619265968560387
aF1.1901489812026789
aF1.1220113228308681
aF1.0903706427062099
aF1.7009628891558333
aF1.2684868138713554
aF6.171571816249175
aF1.023535488212798
aF2.34786231706663
aF1.0012469271103381
aF2.7175208227636087
aF1.003290279561633
aF1.382644493864139
aF1.191761740814443
aF1.0094403591223435
aF1.6769780897791946
aF1.4472238577261372
aF1.1735891275131796
aF1.2612562134188803
aF1.0088962073981407
aF1.0039941520622278
aF1.1456280714436557
aF3.6531147688526047
aF1.046443805555129
aF1.0039377725260272
aF1.3819520582472677
aF1.8441549999509834
aF1.3169080665229114
aF3.556597429522351
aF2.5064190104273383
aF1.6546047247363729
aF2.853429424516125
aF2.201550769809946
aF1.2093410390545534
aF1.191761740814443
aF1.5542321961882162
aF1.0018597555091797
aF3.5347875081240696
aF1.0919214411653075
aF2.0291042087615527
aF1.0138556713099935
aF1.0636318273071776
aF1.1621454335406045
aF2.5320138116554567
aF1.9704521047611374
aF1.0993701583994344
aF1.0230740165174992
aF6.862273647191916
aF1.1093117205341236
aF1.2158014937600035
aF1.0118218533975911
aF2.1933958901792057
aF2.3240378999676135
aF1.54974210278603
aF1.0588963805320286
aF1.9457286056294865
aF1.573862711842994
aF1.0018570018734192
aF3.44602496350106
aF1.0046432123180369
aF1.2271031815480964
aF1.2788632617024767
aF1.105911472871248
aF1.0042302859836847
aF2.6621039864261746
aF1.0391587116313146
aF2.477723787315431
aF1.4319952977539414
aF1.0777390854249544
aF1.0512583714162305
aF1.2067378166921905
aF1.058652664408599
aF1.586730016819451
aF1.4568387196158838
aF4.184735257423253
aF1.6693873619104493
aF1.1837605860587312
aF1.2156837671997038
aF1.8499072109959476
aF2.236081012150097
aF1.360235262206129
aF1.3858217614197754
aF1.177294722702958
aF4.013089053393941
aF1.7057756174827776
aF2.3018254760111643
aF5.017851249579147
aF1.7781564465063897
aF3.2579595458652144
aF1.0225519235927805
aF1.0064606340151916
aF1.320717255468356
aF3.148225510832912
aF2.61441392585254
aF5.018433028349919
aF1.5412172691445918
aF3.0097353788302157
aF1.0183948101040226
aF2.694200675615735
aF1.5130433121822067
aF1.0076319723086007
aF1.085962263690984
aF1.0006408337755706
aF2.4225602023643704
aF2.763835756363525
aF1.085734962126478
aF3.526126199804027
aF1.9212727416450812
aF1.00098579320709
aF1.1246941286390153
aF3.095242719569067
aF4.072845087470314
aF2.039294202084415
aF2.3590951189302714
aF1.436876062683539
aF1.3100917976151554
aF1.1448712098388625
aF1.0483450191149093
aF2.4960284559575237
aF1.0928151548082072
aF1.1010050764649664
aF1.3165022265373305
aF2.554041245744773
aF2.5795925424085775
aF4.225485533596738
aF2.3042622257863297
aF2.495080946844205
aF1.2803551626251883
aF1.0457408213052621
aF2.0373750937414457
aF1.5890344735032271
aF1.005476607728305
aF1.021109844276657
aF4.518031708949537
aF1.1235987313430806
aF2.498254022363453
aF9.179997447000629
aF9.408083810949407
aF1.0118620486345198
aF1.0018669789117212
aF1.011324216186035
aF1.889516736305486
aF1.4023694684287653
aF2.590217487402142
aF1.010833320213349
aF1.0001472530254387
aF2.1083475145495307
aF1.6097335379314037
aF1.1305726376116014
aF1.7081942066261206
aF1.1061287767518864
aF1.1442104735503584
aF1.8693893235102519
aF5.971658819350733
aF3.0216586834177392
aF2.0649575837980807
aF4.433480215681257
aF1.361490991500154
aF1.4201890173622511
aF1.4264069124697842
aF1.1502252238518098
aF2.63423389808336
aF1.2348565157377707
aF1.136680198692429
aF1.0049563135631334
aF1.1824945456334988
aF24.441074965619105
aF1.9381951525294356
aF1.363167990865521
aF1.0809883101450994
aF1.1803684198395077
aF6.179037021637527
aF1.1476040250553998
aF4.066948161071823
aF1.2410945995858813
aF1.0919742428542119
aF1.4624173971582326
aF1.0907596706853564
aF1.6432882151225725
aF1.022655537893013
aF1.7517462179216905
aF1.0068755785872368
aF1.0361368052319593
aF1.0124573851303456
aF1.0796413835848058
aF1.1860867893103344
aF2.3399046261612626
aF3.797539659306679
aF3.3428798451113004
aF1.1425850101845372
aF2.495386669024176
aF1.4696464087587544
aF1.5345488346197473
aF1.0298131452356134
aF1.3774120210223544
aF3.034611929020302
aF1.2442703129469121
aF1.4010548655724142
aF1.8727715303920642
aF2.5970075973320608
aF1.1735642413216243
aF1.4747388071655856
aF1.4635692274384866
aF1.4028966992492615
aF1.004765134842577
aF1.0380096627290258
aF1.062146952243425
aF1.0020096265720455
aF1.0693999319012328
aF1.0048616480125083
aF2.5894780029001545
aF1.5433834833446947
aF1.3342106499629043
aF1.1303924373867529
aF1.1484720745647905
aF1.0263203591659198
aF1.4169722595442633
aF1.2898705041877507
aF1.0044301990377396
aF1.3254154490095906
aF1.0003499467137877
aF1.5032787299658676
aF1.297513705187404
aF2.0129303313587377
aF1.0375823297596356
aF1.1786226702177311
aF7.272010494645654
aF1.6806554586244324
aF1.0520332779268347
aF1.432018376177124
aF1.0284814800530728
aF1.057139181822618
aF1.6914301487883208
aF1.6510920242778957
aF2.361559070668412
aF1.1303751029767033
aF1.4972512003441392
aF5.407526083949936
aF2.17085260405388
aF1.471818519400508
aF1.2552521724382986
aF1.054923397756214
aF2.0385901558682913
aF1.8936783014362302
aF1.0140331376514176
aF1.0302458088980024
aF1.0844268926437974
aF1.5388171793604042
aF1.3041214086096484
aF1.0071245156467117
aF1.3631275184054406
aF3.341015963078255
aF2.3231335453608692
aF1.4475847160764488
aF1.1206231275621252
aF1.0770788068013233
aF1.0750159518920315
aF1.0011715830895551
aF2.125706717768734
aF1.0050557649885337
aF1.0277879767826381
aF2.476603128635018
aF1.0721288354457097
aF1.2535610843724545
aF1.2216530297175794
aF1.3391014094009432
aF1.017033070944624
aF1.740624714101883
aF1.0030608748417298
aF1.0830272565434342
aF1.1128541277452213
aF1.0075644317878998
aF2.899251203097658
aF1.284836273783978
aF1.0380096627290258
aF1.8870423870759903
aF4.579110730912643
aF1.0040502603584838
aF1.052284898428086
aF1.0401061987710947
aF1.0299328754800567
aF1.328085863457057
aF1.2335618181275165
aF1.3950735853220195
aF1.092588942388097
aF1.0024688967094908
aF6.9389048254248
aF3.6862500496100905
aF1.8661952418015757
aF1.5801022921430923
aF20.84140754054906
aF1.344023359929943
aF1.244665228765732
aF1.005898970917201
aF2.3289678325548064
aF1.084038752022621
aF1.6256852192227884
aF2.0629823882467315
aF6.2479045726390785
aF1.3154244529588768
aF2.0852545327903815
aF4.254402447799595
aF1.5104219980730966
aF2.4952510058012547
aF1.0175368524589876
aF2.307264653969455
aF2.1778385438375
aF1.336632084495854
aF1.061750264937326
aF1.0077240407764538
aF1.119447463201213
aF1.3822004136560242
aF3.418111865610716
aF1.3602550814398426
aF2.4820586901570447
aF1.0311767044137954
aF1.0342605516267844
aF3.1405837731464423
aF1.1735642413216243
aF1.3154244529588768
aF1.5795167063038162
aF2.0092146943687044
aF14.957989489262767
aF1.0060073874739632
aF1.3675341669835337
aF2.3543569348980276
aF2.8946081651014226
aF1.081649323895427
aF1.023211738652558
aF1.7154812312699854
aF2.043528793100697
aF1.305334327563584
aF1.3095847205069429
aF1.3947615366703823
aF3.580444179997447
aF1.1063868815462565
aF1.008124394896398
aF2.4470892090490173
aF1.358852425846046
aF6.659060124361132
aF1.4991489721146536
aF1.0443475641999775
aF1.724978866302141
aF1.2681986058504935
aF1.5270584973385228
aF1.865377945977913
aF1.310299034028749
aF1.5722337788418292
aF1.0221347908716585
aF1.0761454785873934
aF1.3360319813852493
aF1.0009830495491907
aF1.3573028567808083
aF1.1448410216529785
aF3.304495794224864
aF1.1280166621486851
aF2.379351054708682
aF1.1348189440699143
aF1.3970420188991708
aF3.237397830563038
aF1.0143844377210067
aF1.6283369415375295
aF1.354691990732341
aF1.4048769213168393
aF3.1405837731464423
aF1.7179681808302734
aF1.9693664993554953
aF2.388274856437304
aF1.5048475276012034
aF3.2392690778739763
aF1.372449746422627
aF2.7472741984569913
aF1.1652915667618946
aF1.0011715830895551
aF1.1748985994033958
aF1.0306430640743718
aF1.0307423470379444
aF2.1311837501202358
aF1.9158007241250816
aF1.1296545960644233
aF2.487544869819442
aF2.7962310342084757
aF1.004506758296962
aF1.7450127379547702
aF1.8676828974671207
aF1.0184833742995454
aF1.0056985130943155
aF1.272432167043602
aF1.2849501099774132
aF1.002348976704207
aF1.3997971713943977
aF6.930248134410075
aF1.012356009519621
aF1.60406992136147
aF1.0064766066614048
aF1.0316788699917507
aF1.0007706880599976
aF1.0316591797736399
aF2.017747549374688
aF3.0703428874077723
aF1.482835009782855
aF1.1835420943185329
aF2.69547779093822
aF1.2480766207075136
aF1.9348140911954512
aF1.1071505082429158
aF1.9924467209467571
aF7.4865938472147535
aF1.1929597118313346
aF7.853052460315981
aF1.4971999576845005
aF1.9225532007924961
aF2.437584482863716
aF1.0201397143241266
aF6.128106610611494
aF1.0243362494728054
aF2.2992117092269995
aF1.3308353161773299
aF2.078921974702319
aF2.628347855483146
aF1.964358366390504
aF1.0322673227978143
aF1.149879059873574
aF1.466871930578599
aF1.5450357904786924
aF1.0032064019849078
aF1.5597277607245705
aF1.8359945203513177
aF1.8114916887618444
aF1.3210671329232884
aF1.2057069068897577
aF2.8364290412321713
aF1.217909536333405
aF1.6151015143757053
aF1.1559530510685425
aF4.296281827763557
aF1.558455868390258
aF1.4523861708409633
aF3.827112851515094
aF1.1268996516918472
aF1.6440785136690057
aF42.97034148302617
aF5.256493909317146
aF1.0341120982582013
aF3.0557461062179474
aF2.2848426211988233
aF1.7801123308479532
aF1.6699007660492817
aF3.11736354821254
aF1.0776835210165459
aF1.0959305652441258
aF1.541608696506713
aF1.9408998972448301
aF1.0316591797736399
aF1.8232022906645924
aF1.047019658603033
aF2.643190002476545
aF1.6299034926974822
aF1.0658339755882311
aF2.2627466624347825
aF1.0530379584083729
aF1.214792228100438
aF1.050912488177897
aF1.2513713542510887
aF2.967389949155501
aF1.8460034622198371
aF1.4025228622926764
aF1.008701396010567
aF1.9776732013759537
aF4.1742749390150715
aF1.0433867837496904
aF1.1486609940220316
aF1.535941581094045
aF2.4380479002580002
aF1.0046632045778119
aF1.1637184033217578
aF1.1066399757116987
aF3.2315928932935827
aF1.951760285973499
aF1.7714065045128062
aF2.2508361229642553
aF3.1935759585769112
aF5.064161125703504
aF1.889838741500124
aF1.5906935370547308
aF1.0235729468145849
aF1.0008332773117037
aF1.2097996315008521
aF1.351532426337016
aF1.069991928071095
aF1.7677854277200076
aF1.1767152086920252
aF1.004232989091885
aF1.250381995291918
aF1.2578718182949005
aF1.0191160371440893
aF2.2021374519000227
aF1.0133101403397802
aF11.077338657292115
aF1.0243362494728054
aF2.2123076744145656
aF2.8616087144831455
aF1.6574552420527096
aF2.8874909588663438
aF2.9787777150627326
aF3.677056214902444
aF1.288591118076949
aF1.022433910714305
aF1.0228167410656062
aF1.382644493864139
aF1.3483348389834107
aF1.0089629033105136
aF1.0044359791607966
aF3.8125531692243317
aF1.26547983822445
aF1.702693740348992
aF1.9348140911954512
aF1.3397924257155525
aF4.872152506115406
aF1.0904183244530383
aF2.605954246136086
aF2.089404007470231
aF1.5316635747833047
aF1.840037328474486
aF1.2856025770719377
aF2.3453950607374483
aF1.455610650581187
aF1.9402979891377017
aF1.0187211080638157
aF1.0316788699917507
aF2.4827346318525807
aF4.559794800680092
aF1.0190276074740099
aF1.1486466768255605
aF3.5051118093684805
aF2.4591763368240476
aF1.2292362564712729
aF1.0177896910570534
aF1.6451225324641887
aF1.0128555366394851
aF1.6980281558170314
aF1.0044451543748
aF1.1061381750006023
aF1.0724940696792284
aF1.012245748972354
aF2.209468522379121
aF2.926892182674225
aF1.2594250354995296
aF1.8607736160363944
aF1.1868253811925547
aF1.5890479421280654
aF1.577574249594112
aF2.4677934332416815
aF1.1835420943185329
aF1.2294602404227946
aF1.748085506342963
aF3.2549152654801516
aF1.1543619710592012
aF1.1740018543640485
aF1.269717397442609
aF1.0971415397313298
aF1.3534344507289586
aF1.2633918781339093
aF9.61840119738109
aF1.2744068768626637
aF3.0676838277008334
aF2.2226864579741075
aF1.875311236137799
aF3.8638385012277503
aF2.36981952257807
aF2.753530535937182
aF3.455055517507835
aF2.2182577414078017
aF1.126737400454417
aF1.6587998429994262
aF1.0007001721015691
aF1.8575614594355492
aF4.490009411235213
aF1.272432167043602
aF1.7299731216198844
aF1.0345477986061362
aF1.01595075985301
aF4.6373188659354865
aF3.4279291415952655
aF1.3822004136560242
aF5.282265132130299
aF1.0142830398653087
aF2.0027734148416165
aF1.0315534072572219
aF1.0696140500916655
aF1.0879888062695295
aF2.0093438497456177
aF1.0598314068584687
aF1.0269024079312745
aF1.0024514762016392
aF1.8940362707045866
aF1.0199417751423348
aF2.8699513198846236
aF1.001376558308749
aF1.171677144972726
aF1.071397517742857
aF1.7612297039022529
aF1.208260391793034
aF3.929379606823047
aF1.0747958948033933
aF1.890195998622519
aF1.024060072946536
aF2.509708452408307
aF1.2460171491432452
aF1.2737920023568339
aF1.1843680674311234
aF1.014135879934816
aF64.2233363829568
aF2.195464775569507
aF1.3740134092475456
aF1.0041746105821756
aF1.2221404781610945
aF3.6679268083393035
aF1.1355686249267036
aF1.3774120210223544
aF1.0793821375425134
aF1.1521225440035574
aF2.112277332613878
aF1.2589146323023552
aF1.1722235493213973
aF1.4507462777570805
aF1.0342429046207955
aF1.4555177581492136
aF1.3858349835074308
aF1.1085079513784237
aF3.1247389009086177
aF1.7005773561027535
aF16.371299987385314
aF5.422861365756321
aF3.4834973768842303
aF1.1919814748378352
aF1.407070431121506
aF1.6996104465644237
aF3.3786178934822524
aF1.4010548655724142
aF1.0520176655442113
aF1.0060922791813374
aF1.4025381569432551
aF1.2571298049603539
aF1.0740066802396218
aF1.2542017022467946
aF1.6922958943661532
aF1.0505127614656218
aF1.3428389479970326
aF1.0010110789504034
aF1.0001308112823832
aF1.364764092822174
aF5.237453359787718
aF1.8476012839789564
aF2.277336696000442
aF1.0014083482946434
aF1.8702273131033056
aF1.0261440238404151
aF4.411222168488578
aF3.908921514866449
aF2.490049099581073
aF5.206631427763102
aF1.0089911887627965
aF2.2860668838559057
aF1.1505814270603265
aF1.009603596632805
aF1.1499501079639325
aF1.0080600743514732
aF1.0932992776785804
aF1.0178512883849347
aF4.683164669272052
aF1.909187185983832
aF1.0051609278144296
aF1.1440454042650927
aF1.908491142870944
aF1.1899346067248067
aF1.0767590005237366
aF1.0487428046631462
aF2.643220493637381
aF1.0042302859836847
aF4.313323519074926
aF3.868803383987115
aF1.018253195633688
aF3.643555564759963
aF1.2434812822938262
aF1.0004171774127406
aF1.3569515797189826
aF2.8251692282292167
aF1.1683497244189518
aF1.3397924257155525
aF1.5880304647282761
aF1.8543655683583102
aF1.0776835210165459
aF1.392323694491553
aF2.881129034099746
aF2.649949911008791
aF1.5146211468811948
aF1.8881739431838456
aF1.0139778644271573
aF1.0289531900533864
aF3.3079992745420324
aF1.145149647906247
aF1.0286776153140902
aF1.5127256700444967
aF2.129872244514956
aF4.895267143241931
aF3.620746071180742
aF1.00875646321023
aF1.014503585540946
aF1.7890725255654945
aF3.0661875771296834
aF2.041808855648504
aF1.459808917764497
aF1.4065461669275574
aF1.3970420188991708
aF1.0630087873007088
aF1.9387313282935015
aF2.263398852969986
aF1.5630254819349798
aF2.048554514646594
aF1.0043866198517517
aF1.4315520970121511
aF1.6188036748635348
aF2.1446798016571256
aF1.6175413255267632
aF1.355973946076994
aF1.6088893870817966
aF1.4420888503427056
aF2.2565087098265626
aF2.0963504686512326
aF5.714618403005715
aF1.2397013868704276
aF2.142948530989077
aF1.2164124067060902
aF1.1378711185438861
aF1.0323835278535454
aF1.302621604242548
aF1.005595354692196
aF1.1605461931881587
aF1.3809544670188916
aF1.0025878992250599
aF2.1823748989513847
aF1.081159058248148
aF1.0198632769455047
aF1.0233124693046525
aF1.6451826764591522
aF1.089004283025365
aF1.2364042925369934
aF1.5275722918524104
aF2.0093438497456177
aF1.2468297156830987
aF1.0041221429205471
aF1.0024446134275713
aF2.9856585904983275
aF1.078364088021628
aF6.163104526064107
aF1.006283710420366
aF2.422648989380282
aF1.079703976259692
aF1.4869302288708464
aF1.2840833999706478
aF1.6218129986934353
aF3.0314293513009005
aF1.1543564212317223
aF1.0569748390098317
aF1.150307819459663
aF1.1063868815462565
aF1.0103113556027514
aF1.1007850220048208
aF1.11458862840511
aF4.167009406712796
aF1.0041221429205471
aF1.1935320520327053
aF1.5008483822868235
aF1.2466450623248715
aF1.1969472891544746
aF1.1292068754674458
aF4.282177066060948
aF1.1040115896616423
aF1.505493142475046
aF1.7435350815813917
aF1.0251574771679886
aF1.9668486366127305
aF1.653730290144182
aF1.0097649671965174
aF1.041568079513672
aF1.4908059196973649
aF1.287137150169038
aF1.0310223451309002
aF1.283516760640013
aF3.1785807300915057
aF1.3108267717263455
aF3.142153293190794
aF1.0014083482946434
aF2.270092086749251
aF2.1731190128215196
aF1.0007706880599976
aF1.1570646169412337
aF1.1066301952109585
aF8.144069319761588
aF2.377350675494433
aF5.961745110066149
aF1.2466679251280173
aF1.002919012328324
aF1.4194705069701092
aF1.2466309097308153
aF1.2777442325903567
aF2.486612743212516
aF2.8609843268362356
aF1.4931861326455573
aF1.6303540931560094
aF1.3215839770587645
aF1.5195173618709799
aF13.37543110434346
aF1.5607514536587361
aF1.6702999739922335
aF1.1125918632824956
aF1.6397600591644317
aF1.127635125374111
aF1.0273568680556084
aF1.0066060689925904
aF3.7248133035766866
aF1.7185274294353827
aF7.6390073379685175
aF1.3970455080378683
aF1.1907324933217895
aF5.327734632430443
aF1.6838873387327966
aF1.011952261324647
aF1.1957390751281063
aF1.6394632436583714
aF2.975317829905231
aF1.7296107324228425
aF1.5301757668626157
aF1.009603596632805
aF1.0168743318406248
aF3.643555564759963
aF3.980601771038406
aF1.3254154490095906
aF1.5414431139479572
aF2.65607606678114
aF3.417976030301734
aF1.0627199561159726
aF1.0516184593991695
aF1.3711395138458085
aF1.2070188566702396
aF1.0014083482946434
aF6.990401047691677
aF2.8874909588663438
aF4.287819292040459
aF5.009279512744396
aF1.641621575654939
aF5.888357666174967
aF1.1057488593521474
aF3.5484736446306964
aF2.4004714811024646
aF1.6314156524442833
aF1.0243495572815347
aF1.3934092120429038
aF1.0286359287646247
aF1.9385563388945053
aF1.039141893172662
aF2.1003193814855377
aF1.082817459840242
aF7.239677199748298
aF1.9400229675114864
aF2.3979612400327626
aF11.44289105426105
aF1.279409974554139
aF1.4340146833469587
aF1.7093969733571908
aF1.0087920056444413
aF1.0047539333067879
aF1.7677854277200076
aF1.4005833102156342
aF1.2624392964357534
aF11.21572016739112
aF1.0030608748417298
aF1.1010050764649664
aF1.5977660558464772
aF1.2268187783400697
aF1.6060598575966012
aF1.053521053148504
aF1.1388167711561223
aF1.282678322453846
aF2.913192457193273
aF1.2308629213040962
aF1.7457770266615682
aF1.3093493879532976
aF1.9348140911954512
aF1.006286651440601
aF1.004037508208542
aF2.805218377958918
aF1.1136133935762726
aF1.0264541088152028
aF1.3237544973675048
aF1.0138929712394926
aF1.1303716464324682
aF1.271502665959224
aF1.758862298457225
aF1.3342518267740906
aF1.4400578157456092
aF1.0493774311540827
aF3.4399200227457016
aF1.752171888655767
aF1.1748985994033958
aF1.2123363804220066
aF1.0658603309643866
aF1.7796055299970217
aF1.2878168534342391
aF1.3768243422898303
aF2.4162843028549674
aF1.1235987313430806
aF1.5878409626994778
aF2.8584073999016484
aF1.008085238612903
aF1.0041401803740115
aF1.752405959537192
aF2.5474406703794443
aF2.6119608412587123
aF1.0015135093614205
aF2.3282568905189063
aF1.011903251736271
aF1.1067218864990307
aF2.6143664921877625
aF1.482315627204256
aF1.1709203126275263
aF1.0145462608992981
aF2.046604107126268
aF1.1184048354004894
aF1.0117369784274821
aF1.3997971713943977
aF1.0462759585388828
aF1.9080137106578856
aF1.0267670416112253
aF2.031920173619815
aF2.8087557580984184
aF1.0783789947944067
aF1.0771764269625526
aF1.4146373117719826
aF1.3115398909384033
aF2.06517286346416
aF1.101326567436632
aF1.1973444061136997
aF1.006791275259557
aF1.2200204057099426
aF2.2221450135689786
aF1.3844077747775578
aF1.2329615924150634
aF11.571075596005066
aF1.0689401579504232
aF2.4125593411033344
aF1.1729929995669164
aF1.9458966900364159
aF1.6605991127423883
aF1.111129307920139
aF1.0144021644216206
aF1.1734366852497322
aF2.7223232891759706
aF1.1080707731915111
aF2.7294557943720155
aF1.1109809458195388
aF1.0912005740597515
aF1.1083548342011635
aF2.6699575885001403
aF1.0760628860234145
aF1.460272396173222
aF1.2016045797885426
aF3.068733401730624
aF1.0417557765434744
aF1.012842746621902
aF1.1262159355229313
aF1.5129630449104832
aF1.3733177465296385
aF1.437525829874802
aF1.0840428647732678
aF1.2253532400526705
aF2.0047121718980674
aF1.0277465528622944
aF1.002292801932984
aF2.4355527101204104
aF1.1085079513784237
aF2.355204084071109
aF1.4092929776002534
aF1.2655884709174567
aF1.220260412748244
aF1.4141032738666208
aF1.8088925413621477
aF2.328363520437789
aF1.1212122800488944
aF1.018601090404169
aF1.2476126166768853
aF1.6123836922206554
aF1.4492802065617074
aF1.1551030392123838
aF2.104259843693729
aF1.3859288161587586
aF1.1121376521169766
aF1.964358366390504
aF1.1735891275131796
aF1.1383891518199025
aF1.436876062683539
aF1.2491859808718708
aF1.0239591239468178
aF1.9017892181002118
aF1.6047853574043718
aF1.6298845769785169
aF1.2989815893009482
aF2.5962392165842996
aF1.0420388965950456
aF1.3000834444011495
aF1.0293760591072183
aF1.0013085061092437
aF1.3147166899608964
aF1.344023359929943
aF1.6249193650734552
aF1.469247264687937
aF1.0100319101897173
aF1.5599364532522535
aF3.5018325957821177
aF1.1315698575249973
aF2.8269007242716517
aF1.3317937330263447
aF1.007270166422195
aF1.3055899772025619
aF2.796426914097927
aF2.5835459367419444
aF3.1785807300915057
aF1.4357127979863462
aF1.497025577935878
aF1.4714006104653292
aF1.054147311542553
aF4.744244734768271
aF1.3572749210684656
aF1.5435311670646952
aF1.1772798608279145
aF1.0112386541182294
aF1.1962950660132943
aF1.0152685671718795
aF1.5059462003494328
aF1.4527686925836478
aF1.6702957381788939
aF1.054923397756214
aF1.3485836230197044
aF1.0313048248788506
aF1.626416545751045
aF3.1635549406610104
aF1.0993701583994344
aF1.3586754636080123
aF1.251716176383506
aF1.0027224138066613
aF2.6738181923029143
aF1.453404320683885
aF1.395165034790223
aF1.0982385404770945
aF1.4276723917061995
aF1.2373031150204281
aF1.3429187454483074
aF1.1240002534878235
aF4.144430511330217
aF1.612672175846535
aF1.012271913561148
aF2.232261212137191
aF1.0170670484516675
aF2.6226497305029635
aF1.0044858429634687
aF1.6630072039242398
aF1.2944721033976008
aF1.1389745283904407
aF1.0123628826011963
aF15.441949895510385
aF1.083915490129988
aF1.0033884493168488
aF1.0239286762345197
aF2.090672872011147
aF2.2116258624177845
aF1.2331398982297401
aF1.1774942857647468
aF1.0369336841514503
aF2.439063473314173
aF1.0039941520622278
aF1.3484603329754907
aF1.492238353819296
aF1.0875178987700382
aF1.008124394896398
aF1.0293760591072183
aF1.037697093302417
aF1.0946051835146435
aF4.518497101319628
aF1.0002593842536132
aF1.0235086845061956
aF1.2921573075573596
aF1.9112637099711751
aF1.0011487098369831
aF1.1430802466818826
aF1.179999036785873
aF1.4283415981508374
aF5.978814408488993
aF3.318042416827744
aF1.0953283302841688
aF2.3406248228335973
aF4.5353615638892615
aF10.402488755024464
aF1.0025527599943227
aF1.0150045226790796
aF2.1964250052235887
aF1.0140321857206929
aF2.3188166483038106
aF1.5962851131373073
aF1.484281187530956
aF3.656499101834189
aF1.0021181512746125
aF4.1596816090932816
aF1.4298992083473212
aF2.6050228443420522
aF1.1760664215458512
aF2.183553742161375
aF1.2737883652217525
aF1.229827727037071
aF1.0429781296245937
aF1.2512838818937104
aF2.7594166389129526
aF2.747231199130285
aF1.0369019234959866
aF1.3307081521696535
aF1.057583580082131
aF1.0023741771100207
aF3.1215795480293744
aF4.518031708949537
aF1.4447050489709237
aF1.209502045072932
aF38.35075480878914
aF1.201547154614678
aF2.1418375079117227
aF1.9505154704002272
aF3.0997230001613834
aF1.3055899772025619
aF1.6966084544537208
aF1.5556292147088984
aF1.030495055539924
aF1.142614540958762
aF1.0017993626106882
aF1.1241255422829575
aF1.0012469271103381
aF1.7546852400270243
aF1.3288747638156
aF1.814250201398921
aF1.0424579195121884
aF1.0637198294048025
aF2.7900235290893005
aF1.0416476399148207
aF3.455916114796852
aF1.0043419691787898
aF1.0088120074772418
aF2.1822039378579543
aF2.101731941007557
aF2.5584395106384856
aF1.091016957363484
aF1.2199304971045952
aF1.0133116848329105
aF1.9431986371432308
aF1.3523775613568247
aF3.5351294251003735
aF1.1175593031414786
aF4.813071613242964
aF1.038474764470558
aF1.1643608077842578
aF1.457837805914261
aF1.4221905018336392
aF1.5301757668626157
aF1.9436426540890144
aF1.0269024079312745
aF1.5302445271592413
aF1.000484161035187
aF1.6077389219678146
aF2.1655710125681678
aF2.297720884287462
aF1.5028250940779195
aF1.3405423390093862
aF1.006350084346879
aF3.6320378873375683
aF1.9908596063095976
aF1.0219546108441677
aF2.0490970546210185
aF1.2995742968355286
aF3.7935119362021767
aF1.3637920461646604
aF1.0392451543526458
aF1.8607137933610916
aF2.9577961802359996
aF1.3984753685927074
aF1.1724910195089049
aF1.7293829698431935
aF2.448845727225364
aF1.08398678211074
aF1.0763732608598189
aF3.7640503114201005
aF1.1508192420024754
aF1.3263161295426522
aF1.454034689565481
aF1.6086521963053833
aF1.5703157057208181
aF1.8858245076049875
aF6.134623220139298
aF1.0315063388076406
aF1.3112675447332485
aF1.4552912374985632
aF1.2168960821266115
aF2.6887003869500026
aF1.7195754834756218
aF1.0002124618017094
aF2.7039449999360867
aF1.1378711185438861
aF1.811310827109997
aF1.2670746327635853
aF2.251146681159752
aF2.044701660862584
aF4.895267143241931
aF2.4028811390634544
aF2.471625964838021
aF3.401333870650839
aF1.5352970733568572
aF1.558455868390258
aF2.4763213381027986
aF1.0119949226076272
aF1.0790454882931506
aF2.022271261847368
aF1.0587247820377657
aF1.0869160691699784
aF2.321463888835551
aF1.1803526364026595
aF2.8645179517230743
aF1.0147523816217017
aF1.7033586356971948
aF1.0168737890444441
aF1.1378711185438861
aF2.769970947596709
aF1.6660863752861501
aF1.2116068399194235
aF1.3617079759922015
aF1.0051609278144296
aF1.2800507079568328
aF1.0025927749806713
aF4.540768579717102
aF2.4176033828499035
aF1.0573328899359309
aF1.1368949391369139
aF2.096327658537062
aF1.0942082082245757
aF1.4351747778804211
aF3.244544334918145
aF1.048445873578059
aF3.300119839837647
aF1.0132905958636862
aF1.6461786765344646
aF1.0026091367441845
aF4.0237738869111785
aF1.4149830413953948
aF1.2779144182210775
aF2.9645245102252016
aF4.142779552775486
aF1.7717108936690547
aF2.9632063605775047
aF2.590217487402142
aF1.0247459649903978
aF1.0044053113447364
aF1.01019487187315
aF1.3243183420883593
aF1.5627377298607292
aF1.1786688514749286
aF1.049452119126783
aF1.2828114636378656
aF5.362376030658468
aF3.890454039037829
aF5.789790499623663
aF1.407070431121506
aF2.2138485953769576
aF1.0444577338775214
aF1.0835563177268743
aF1.0682293304382728
aF2.1836729458669506
aF1.1538866426446255
aF1.2081290062087564
aF1.1954064278807377
aF1.2360900213225743
aF1.3261118788300963
aF2.84052670240226
aF1.4191856050725926
aF1.3984753685927074
aF1.4664017673189789
aF1.9813756766215063
aF1.0428613356176806
aF1.488103991284664
aF3.6672354556916753
aF4.068110873014727
aF1.1152902638038695
aF1.0190861972105931
aF2.63423389808336
aF2.453262905284625
aF1.006769949153321
aF1.0203729682683624
aF1.938655429836757
aF1.6178068048377374
aF1.4985425939076646
aF1.4088322003025628
aF1.2239607502221825
aF1.5319160398667364
aF1.5228541607909163
aF2.828093641205802
aF1.2638505868871364
aF2.356851473497026
aF1.0973005492873116
aF1.9351687182654538
aF1.3765489759178409
aF1.1142182059628174
aF3.20798825460399
aF1.0368232321449695
aF1.5274585037737545
aF1.5604735288409233
aF1.140574782189797
aF3.3848383193008003
aF3.5476544864962483
aF1.0940884532077502
aF1.3755926701888692
aF1.4935518286448313
aF1.3717046705239329
aF1.4850121963733243
aF1.0024688967094908
aF1.1361736782631027
aF2.8946081651014226
aF1.2494809046901822
aF1.0715570107958101
aF2.08282587497111
aF1.0045503472704271
aF1.0235584325855878
aF2.223687949502768
aF1.892798354753743
aF1.11458862840511
aF3.5473355495151164
aF1.8721210486422784
aF1.048041734454412
aF1.817467814297145
aF1.6425591077407642
aF2.8301734116318213
aF1.8638141765724496
aF2.95105861845801
aF4.414835769115308
aF1.840087467502913
aF1.021086318986464
aF1.7892368213489336
aF1.0105587976285584
aF1.314512863200749
aF1.6457047732509218
aF2.416704440264357
aF2.3150506152653465
aF4.2570267173543295
aF3.761133615388253
aF4.032994821209638
aF1.2878016980132168
aF1.5423758496940176
aF2.811632104867072
aF1.087638400326332
aF1.0487428046631462
aF1.3054136255157758
aF1.078473747370727
aF1.687709383953687
aF2.2050982304986686
aF1.3224335323487273
aF3.132130660897347
aF1.0926578859062217
aF1.0643261819467218
aF1.0126517259040544
aF1.4663997681349321
aF1.3072225672175048
aF1.0446653170242057
aF2.1688625723747155
aF4.886674810628251
aF1.0647629503195917
aF1.2162153310721795
aF2.1380509979922966
aF1.0060972369008474
aF1.0969760326437572
aF1.1798254795694731
aF1.1557561084477113
aF2.1933958901792057
aF1.2794917812188922
aF1.0181597552656534
aF1.0921071581171904
aF1.3012403288740595
aF1.0781554054224611
aF1.0676131449061965
aF1.2795214519410179
aF3.639019271515167
aF4.256686551580241
aF1.464093880549456
aF1.042466015661894
aF1.4598723847123936
aF1.8342259681960056
aF1.4428204793781945
aF2.137466216220519
aF1.5454538054863354
aF1.00098579320709
aF2.5707347544642523
aF1.223348945095438
aF1.4904945315854805
aF1.0498678564820596
aF1.0705015527978512
aF1.29675420963205
aF2.7554145222452995
aF3.6672354556916753
aF2.6143664921877625
aF1.7394451767316785
aF1.3368392633747024
aF1.1228547514371658
aF1.3383623543763794
aF1.0389743567589327
aF1.249977929364126
aF1.006286651440601
aF2.6037012849750125
aF6.318868478530547
aF1.0143215436568063
aF1.022655537893013
aF4.451243086930849
aF1.4215981381983107
aF1.205575820082637
aF1.0351696787110096
aF5.014436106902438
aF1.007313798688269
aF2.671275216981556
aF1.0032348629825325
aF6.965670052645993
aF3.5685937246401847
aF1.275195463539783
aF1.5555451823407793
aF1.3419966100072194
aF1.1022984052382439
aF3.4834973768842303
aF1.1931174103135478
aF1.4974712384043825
aF1.3410391165921807
aF1.0136787533928764
aF1.065256092060387
aF1.3072225672175048
aF1.5190116299214544
aF1.9661412523075787
aF1.599878039231051
aF1.0763148867586574
aF1.0234554837803251
aF1.0083460571742207
aF1.0363382353597763
aF1.1011379896846034
aF1.7368376351011343
aF1.0202545878663558
aF1.3591055322795094
aF9.554667155029449
aF1.3285368555087524
aF1.2483524950105311
aF1.0418332229049494
aF1.3891369214821812
aF1.104284675409136
aF1.1150391407006446
aF1.203706841625202
aF1.071397517742857
aF1.2739543189645937
aF1.0885012122101185
aF1.0377166724656275
aF1.0894593408033055
aF1.7180147101445438
aF1.204336780824727
aF2.7107798452113077
aF2.1451250306271867
aF2.2280766428911094
aF1.2454683359607537
aF1.0124914752051253
aF1.0412980408730992
aF2.1512267507616976
aF2.8094446094803853
aF1.099841275588451
aF1.254894535980752
aF1.9504489438544905
aF1.0087920056444413
aF1.427798078391104
aF1.495298766508758
aF1.4007285611353868
aF1.036613054405182
aF1.25589411518489
aF1.1034978611242874
aF1.226517292535919
aF3.3411383883764914
aF1.6822088268979323
aF2.000063699783748
aF1.3224054582293863
aF2.5920867255536764
aF1.049954994430409
aF1.6438930918531065
aF1.0733656414558232
aF2.517105048258172
aF2.995004646483628
aF1.2780687102665118
aF1.2816309188581583
aF1.0009286769763965
aF1.0222715469338608
aF1.2793049381980965
aF1.0425504565889558
aF1.0351696787110096
aF3.7114905054451355
aF1.2773478473785425
aF1.353465754337082
aF1.385418040650183
aF9.458083525885668
aF1.1465302144727465
aF1.87976779286531
aF1.261374934523349
aF3.1029747790177726
aF1.0340192499062466
aF1.6517725028095258
aF2.9499764864597355
aF1.3821854956021915
aF1.0835141508313544
aF1.195527661591306
aF3.995903766847935
aF1.0810530182331415
aF1.7043070013073573
aF1.0816800434348206
aF1.419998795654438
aF1.003866700694714
aF1.6054357400206682
aF1.0083206714753337
aF1.4278668750691552
aF1.6711157256456801
aF1.517218261079428
aF5.059021879106371
aF2.936404440615532
aF18.18736096151663
aF1.4985605598000826
aF1.008352493443512
aF1.022658600258812
aF1.3421514238722247
aF1.0533211277697618
aF1.4917394140150686
aF1.0795294940200182
aF1.3561042773640628
aF5.094485277954864
aF1.8141264316057464
aF1.1631386094540257
aF5.888837626125527
aF1.2555512327781593
aF1.3780420326576834
aF1.0054675395162158
aF1.2984205465748693
aF1.0062160247946672
aF1.0014098671730662
aF1.5963182798189346
aF1.4347294908133672
aF3.751030450408471
aF1.1185973860019622
aF1.8634556397922974
aF1.1303924373867529
aF1.4498734665692392
aF1.7365894592852147
aF1.1378083103908174
aF1.3350626975716344
aF1.1204593100849978
aF1.580668590142667
aF1.7225186430815211
aF1.0016865039128817
aF1.2294932851225184
aF1.0368224240706236
aF1.204336780824727
aF1.5021546501595207
aF3.8285616252044
aF1.3547760300894038
aF1.2780069794635793
aF1.2732936190488184
aF1.003761802063551
aF1.0143215436568063
aF2.0018249496711498
aF1.995994458288488
aF1.007250446592014
aF1.956518406436219
aF1.2780687102665118
aF4.889166153389336
aF1.0136463033131093
aF1.0046674560427016
aF1.8265823477572125
aF1.0268240906568624
aF1.0070045232012752
aF3.1657823616846232
aF3.431992099340406
aF1.783700495258549
aF22.92446270162866
aF2.9202387354340065
aF3.23012343914533
aF1.261834604731396
aF1.0227087777734907
aF1.0373971000564166
aF4.331832582986186
aF1.1907324933217895
aF2.2386417551641062
aF1.0490610788098256
aF2.4445642196926793
aF1.5649295743446898
aF1.0270777478655355
aF1.6614742116590682
aF1.179564748353717
aF3.1143400514294326
aF1.0687713355469664
aF24.36191711637137
aF1.1258899012589116
aF2.4967111843449854
aF1.2564597519369571
aF1.3769590219295833
aF1.00160756250146
aF1.101234373243755
aF1.1835333871618212
aF1.062146952243425
aF1.0432951525132292
aF1.010826187190824
aF3.1946672427126086
aF1.4534640939492791
aF1.0656944369705164
aF1.2701463610052468
aF1.1027583618144026
aF1.85587256022665
aF1.0958711576925029
aF2.495080946844205
aF4.208680256614423
aF1.8228079816322804
aF1.079039394601639
aF1.3068183056475902
aF1.1889586087578576
aF1.031443976455544
aF1.1493114188961948
aF2.0696939783772224
aF5.680698768859602
aF2.80174161773051
aF1.3298588820860875
aF1.6988248275057827
aF1.0989420679601376
aF1.0249607266490675
aF3.5223489209813756
aF1.5969362625088506
aF1.1678924925338319
aF1.1004867631068536
aF1.7042038535474138
aF5.237453359787718
aF1.2735120680741738
aF1.570015368751014
aF2.335885994827566
aF1.0913551334825125
aF1.2918092238932324
aF1.074097950450173
aF1.0168608298736115
aF1.0007706880599976
aF1.0249423886545348
aF8.640126401082313
aF1.007809666317228
aF1.7072366728891069
aF1.1806764430386985
aF12.350451273602236
aF3.69172097463909
aF1.0161769308600175
aF1.0455006106740428
aF1.0042302859836847
a.