(lp0
F1.740906662911566
aF1.3025965165797162
aF1.0126141868076735
aF1.1101168671864108
aF1.0301434592040086
aF2.2192286624690434
aF1.3254154490095906
aF1.000002755976589
aF1.4684253114986785
aF1.8173061251342684
aF1.2545804205990163
aF1.9704521047611374
aF1.0002124618017094
aF1.9027182709201338
aF2.5064190104273383
aF1.2436400219665102
aF1.0921945974558693
aF1.0381005771042304
aF1.0327569503576575
aF3.2343279211073863
aF4.3764763246357
aF1.393429765478159
aF1.3144568104127818
aF1.0045264527662012
aF2.0903752720232798
aF2.925525280907577
aF1.2946945098483602
aF1.3670518364032307
aF7.358174322466278
aF1.16987116747828
aF1.0375110411416493
aF2.149058825005787
aF1.269738274177794
aF1.2070188566702396
aF1.0038835108904562
aF1.0274995123672739
aF1.3350331731024252
aF1.11458862840511
aF2.2269940756001474
aF1.0342836211357311
aF20.484060530613842
aF1.1817949220296415
aF1.01935025938543
aF1.7197407644538123
aF1.8661502729520083
aF1.033667419934078
aF1.3577550576331532
aF1.402480688422729
aF1.599878039231051
aF1.3984753685927074
aF1.875082394500613
aF2.03651690944142
aF1.0643972275011921
aF1.6568589009077679
aF1.7509680761132587
aF1.5361542399949821
aF1.0322331994339655
aF1.2840833999706478
aF2.607174040363454
aF1.6248642804061941
aF1.9710165870851124
aF1.0655714789391344
aF1.381726979480271
aF2.2931318828621143
aF2.1211280108066815
aF1.3905337961200963
aF1.0043308922684913
aF11.366321115515587
aF1.3589034059385994
aF3.066762845447222
aF1.1187209092249204
aF1.337772223951092
aF1.0674375492412085
aF1.0627199561159726
aF1.018217681262462
aF2.9922598158325995
aF1.2793049381980965
aF1.608360858592954
aF1.0940643927030922
aF1.3401388713861342
aF2.8495247969404676
aF1.784517377619194
aF1.011020602644282
aF1.1036263371746295
aF2.0696939783772224
aF1.0051519733331027
aF1.0562679081319
aF1.0061094342414665
aF7.074571799709871
aF1.0358028853260723
aF1.9400229675114864
aF2.5265762518940966
aF1.4650981652374482
aF3.409597527364094
aF1.0236144804774554
aF1.013428218500832
aF1.1763082828330074
aF1.1893192937281132
aF2.1775429472795174
aF2.0290094590864958
aF1.1062205193482009
aF1.0024468107941575
aF1.059232513965239
aF1.3068720608786555
aF6.91349037237489
aF1.028622840773633
aF1.0243495572815347
aF1.0385604275197675
aF1.000967068866703
aF1.0092185106007863
aF1.9390753384935382
aF1.4065461669275574
aF6.741154483422159
aF3.8093032515343355
aF1.0132905958636862
aF1.323403698145966
aF1.002179452313862
aF3.1350545844462605
aF1.7195754834756218
aF4.352317436942939
aF1.4637894724139693
aF2.252027371740291
aF2.3093501175530173
aF1.0350980119232867
aF1.4850121963733243
aF1.0281411324425265
aF4.565415184902325
aF1.015803276431841
aF1.5151172891461981
aF3.413078232075425
aF1.501103513233263
aF3.5617059244886473
aF2.224580736121979
aF1.1439522506280315
aF1.3679142551541288
aF3.108296059246559
aF1.019789570111068
aF1.1941119855735542
aF1.2571298049603539
aF1.0462759585388828
aF1.0846101882898123
aF1.995275625744898
aF2.996942211987213
aF1.077201165649848
aF1.3071922046375781
aF1.019789570111068
aF1.1819783349235629
aF1.5678905684309656
aF1.0006156139736528
aF2.1310077024458427
aF1.012271913561148
aF1.3136441892762387
aF1.1356454715795417
aF1.1458366298884848
aF2.904313993967596
aF1.4904945315854805
aF1.1081129319111132
aF1.008085238612903
aF2.304658401335255
aF2.355472836962083
aF1.883005078562906
aF1.0326698214170358
aF22.005259060065118
aF1.2780687102665118
aF1.0563403679497294
aF1.0097784990767924
aF1.1442679916723486
aF2.187828280727917
aF2.695286761923763
aF2.497189785198579
aF1.085734962126478
aF2.086407024753536
aF1.5158678509722947
aF1.5898115945921374
aF1.0178744806662667
aF1.134943323666057
aF1.0302458088980024
aF2.5877998979113213
aF1.392012352684184
aF1.3632539334992
aF2.6762357601100715
aF3.1073717778819474
aF1.3756843465519137
aF1.0355067464370888
aF1.0024514762016392
aF2.8874909588663438
aF1.0165501569781774
aF2.8087557580984184
aF2.5065773950409067
aF1.424963559604407
aF5.4305908822131626
aF1.5412172691445918
aF1.0094214961159975
aF1.7882063033337054
aF1.3093510692866215
aF2.1774819007511916
aF1.0850286405250025
aF1.0116548933735718
aF1.0492781789119017
aF1.0135908832240121
aF1.348101945767897
aF1.0045914013846453
aF1.007136823732853
aF1.0530689307374579
aF1.0496978033874353
aF1.2744154671810093
aF2.307264653969455
aF1.0875118490821591
aF1.0804862858313657
aF1.2898281521644692
aF1.1253891700427936
aF2.7116586430049323
aF1.135406807830351
aF2.728512562941115
aF1.3460787143570034
aF1.1561397695896953
aF2.7175208227636087
aF2.6041963654922813
aF1.0084962386270115
aF1.5576192468130503
aF1.2405269409765485
aF1.3524333708243843
aF2.181203172963339
aF1.0100627348920896
aF1.7500349741630743
aF2.447708007601939
aF1.0000567089152816
aF1.0247347570407581
aF1.0811815104000653
aF5.366413911343743
aF1.3660243156458418
aF2.6807638900315505
aF1.7191138092745064
aF3.0356499802111987
aF1.17256638687882
aF1.0108546628476167
aF1.0741883511814596
aF2.065051835991569
aF2.0844672584342394
aF3.2088497750348974
aF2.4800720058719574
aF1.4023694684287653
aF1.201293960372617
aF4.5989681227707875
aF1.0214519949348364
aF1.0441679526678926
aF1.050752567003702
aF1.4298992083473212
aF2.0441790856037025
aF2.1191035095430863
aF1.436876062683539
aF1.272432167043602
aF1.986482424358279
aF1.777969549918488
aF3.674443992961693
aF1.008412075778703
aF1.1280166621486851
aF3.134364586785603
aF1.3432819720254023
aF1.065648668313054
aF1.9940754339608247
aF27.562310647152927
aF1.0867447455010981
aF1.0160966134679947
aF1.007136823732853
aF1.6510920242778957
aF1.8281131123518513
aF1.6326874459065697
aF1.7330997129311752
aF1.3543526741772611
aF1.8086014355721294
aF1.0464159561225932
aF1.1102664770989719
aF1.616199214594793
aF1.4992943074897862
aF1.6522272263199789
aF1.1302310422201884
aF1.0948116396835013
aF1.9827070521220589
aF2.185740081653231
aF1.0770765064611725
aF1.1506840579629536
aF1.272499242288101
aF3.6588455855959925
aF3.874359154250742
aF1.9811314834131637
aF6.434479930795957
aF1.0080481012351348
aF1.4015650060491363
aF2.328363520437789
aF1.1786688514749286
aF1.0258398823797157
aF5.884109351892038
aF1.1356070425598772
aF1.0328118412095468
aF1.2422858266455792
aF1.0293209006409576
aF1.3693510736205832
aF1.4472397332099405
aF1.3184596062887697
aF1.2545745285013
aF3.5964361156233444
aF1.007063984820043
aF1.586551157823895
aF1.0707118307435795
aF1.0752971814090815
aF7.603030498275743
aF2.6887003869500026
aF3.3682303866612404
aF1.4778392857731129
aF1.6635949426574659
aF1.9659078049178051
aF1.2403876892982533
aF1.0316780934162424
aF2.7347291828912317
aF1.7912744138089207
aF2.5087157263347954
aF1.154945261727151
aF2.154184808284467
aF1.3429777644147292
aF1.0558507103989585
aF1.6897626204073237
aF5.260428788852616
aF1.6874857587547831
aF1.05682868408899
aF1.3606848305711114
aF1.3310822165706888
aF1.1355454540005059
aF1.497580376914592
aF1.0611581835944175
aF1.2317441304390853
aF1.7622137319888125
aF1.435236167867295
aF1.0159602087855462
aF2.6699575885001403
aF1.00402950861069
aF1.2749934793791027
aF1.8154515385049537
aF1.803519438138888
aF1.4598723847123936
aF3.6289458997064306
aF1.1447940000807773
aF1.0017366303125586
aF1.2359120386911646
aF1.5268815028108347
aF2.2070116368242734
aF3.420820727607774
aF1.0017993626106882
aF3.331910588756161
aF1.1691444618163815
aF1.5129630449104832
aF3.1785807300915057
aF1.048491277629765
aF1.0032542150600836
aF1.3747850090211862
aF1.0493774311540827
aF1.5478023707078328
aF1.0172322468013213
aF1.1929597118313346
aF2.084162555604973
aF1.1085079513784237
aF1.0011468875232705
aF1.3537170007667498
aF2.9678548187570897
aF2.9301909153651873
aF1.0579616543967254
aF1.7593594383052542
aF6.258539966270396
aF12.81195455941983
aF1.053521053148504
aF1.1209523456540142
aF1.4995441010401505
aF1.014135879934816
aF2.5625010594736533
aF1.147498684416695
aF1.2409407486048225
aF1.2213246104575948
aF1.327746214731443
aF1.1034114333690914
aF1.2280733316193595
aF1.1692920069441477
aF4.2360047405039705
aF1.0539608937095473
aF1.7308780893029545
aF1.128329521695238
aF6.265513311433256
aF1.3692330397541115
aF3.4279291415952655
aF4.501909349211404
aF1.499525225531038
aF1.3246753307049826
aF1.2089109600162842
aF1.1031886717900468
aF2.412657567196164
aF4.033816779592415
aF1.3298588820860875
aF1.3171368196802284
aF1.0011450757754414
aF1.095656785211963
aF2.7253129128327997
aF1.1430802466818826
aF1.384050556901476
aF1.0242128103082164
aF1.1428711859965794
aF1.0182113581682355
aF2.976091703731392
aF1.0018669789117212
aF1.0752154724319263
aF1.1151146405174
aF2.1411920301708003
aF1.0125347510860463
aF3.4043199890837745
aF3.2248810652578106
aF1.4018881794723443
aF1.0021352695407388
aF3.293577193817993
aF1.1919814748378352
aF1.1917176810603407
aF4.979771058495872
aF1.0211570729952184
aF1.0251051912196256
aF1.122813034167323
aF1.4596636941719374
aF2.3700170661453215
aF1.3537170007667498
aF1.228153700299741
aF1.09736621048259
aF2.136345149658566
aF1.2551073057555107
aF1.3148445681819854
aF1.0033884493168488
aF1.3325588964718262
aF2.065051835991569
aF1.0051303092035615
aF1.016792509638143
aF2.628255891985607
aF1.2521954677285048
aF4.709910849597529
aF8.537341269362638
aF1.107939784096213
aF3.5474702803475013
aF2.5795925424085775
aF1.9933419255339269
aF1.6322797429301055
aF4.1890832467205135
aF1.4793944044823042
aF3.4947455342795384
aF1.0457473501618932
aF1.618385024255444
aF1.313832944944133
aF1.0172264620312728
aF3.179033687643524
aF1.0196079014930977
aF1.0150770199430674
aF1.2389303748158202
aF1.250381995291918
aF1.1383891518199025
aF1.012216701438608
aF1.2987873766707843
aF4.318879302721244
aF1.4898105322498505
aF1.3587538866172322
aF3.1904247376157704
aF2.556356446157982
aF1.0047636458406557
aF1.2853599424515685
aF1.8005056322889268
aF1.450118025393154
aF1.7806996486658828
aF1.0566973523127705
aF1.0685800628932487
aF1.0199606786898374
aF1.494332474475218
aF1.0034417993443094
aF1.0724940696792284
aF2.6594299337707987
aF1.012670723724181
aF1.0133576575467966
aF2.6184580301597262
aF1.9082182677810102
aF3.6139792944820126
aF1.0528382702972636
aF5.630474288816916
aF1.0123091944009506
aF5.946158869288258
aF1.4542877609999576
aF1.8006521469874073
aF1.320717255468356
aF1.7667929046820623
aF1.1138705424908837
aF1.2289642959834528
aF6.647674231567121
aF1.1442104735503584
aF1.5714135009494352
aF1.3680958916462969
aF1.0138589379368113
aF1.0189643596137246
aF1.6374624197423486
aF4.679488122765217
aF1.4114292144160427
a.