(lp0
F1.484772847386597
aF1.6439422397588075
aF2.02086426685546
aF2.2683858670537607
aF4.8870850418965945
aF1.2611969756779526
aF16.244866627029005
aF1.7594409075246031
aF2.9548415884829105
aF1.5388795632899266
aF3.9964937161054053
aF1.4551378091249252
aF1.2717727407480903
aF2.178266509684735
aF104.59000250419412
aF2.0164157572575045
aF2.5653834398612125
aF1.300378671643637
aF1.3320561244137596
aF2.685439203154938
aF8.431876919746767
aF2.403642614403696
aF1.578396393890283
aF1.4660874214742958
aF2.703863207394373
aF2.443102807017622
aF6.921082979903656
aF1.7211672607320614
aF3.2333359349693658
aF12.08788726194377
aF3.1596563420760884
aF4.246194592874018
aF2.3241811910674772
aF2.922659733330605
aF3.9260075599212496
aF3.2579877881361496
aF3.8115722375389023
aF10.709436578018549
aF4.229915539390968
aF8.846262176262911
aF100.4142263421901
aF9.025190939620803
aF1.4659489725979382
aF5.447213350959434
aF5.647879518717841
aF2.717956339722257
aF1.5030010031854066
aF2.578878511234966
aF3.8636957979113626
aF1.5415409461993395
aF3.3899063283670494
aF1.2176904377250153
aF1.9815993457655239
aF1.1058320908299764
aF3.841166435439603
aF1.2123647939847677
aF2.9766850191235257
aF9.231750941380264
aF2.9289897181988325
aF2.645800150212898
aF3.9116038981481562
aF5.866949599147735
aF1.93490384446248
aF4.402754559097422
aF4.0484680460723474
aF5.6377238312120745
aF1.7133104461606743
aF1.1909665055907743
aF2.0852538975665396
aF3.6190857849735196
aF3.638360958840494
aF4.003855789825435
aF5.988124182862241
aF5.555885915377786
aF4.90460793194881
aF2.530436592008494
aF3.183219414107439
aF1.1348389473005933
aF2.288038908341472
aF4.771908708913437
aF1.5133206602393485
aF13.68676850588283
aF13.475435703225301
aF7.574155986143854
aF3.0849111609462643
aF2.6363991244758838
aF1.7849657641107162
aF4.4776301561801155
aF2.2959061100959506
aF1.6138859259894363
aF22.92141093812547
aF1.9494542052985282
aF1.2183118491576825
aF1.5844932999334274
aF2.037095068946261
aF8.661343032242748
aF2.0341681572736316
aF1.102927377240672
aF20.684447302974963
aF4.337585607151342
aF5.291391351850166
aF1.8027025562021581
aF1.2804702897832871
aF8.939328989245137
aF4.358690759558458
aF2.1179125397758214
aF1.4502778995701773
aF1.5263301650891115
aF1.6167406671713453
aF1.4707385868103275
aF4.503028986810086
aF1.6647903214905928
aF2.023311352375662
aF1.294897072900914
aF2.2433934165477547
aF1.9107027225552957
aF3.098970863464154
aF22.882885130177836
aF1.1948717795905128
aF1.222047410852029
aF2.2345326187578487
aF2.9132100303854864
aF1.8512234302633055
aF1.7544464228247123
aF2.254008364773077
aF4.65865118547438
aF4.427155470534314
aF2.3182515670775583
aF2.6763767940126826
aF47.75050196787549
aF1.3969410705215086
aF1.767590080816247
aF1.488350261416296
aF1.3659274068454101
aF2.745423132999231
aF1.4043390790282357
aF3.726807536414112
aF2.3895449807400087
aF1.2523268697424244
aF2.064912106788306
aF4.200169815349995
aF6.61498316261531
aF8.610766184593071
aF2.485662284302276
aF10.64007496558232
aF4.053794428267722
aF3.1301860702901667
aF1.331681348971876
aF5.538564307487608
aF1.7608488346490845
aF2.3826114563243546
aF3.167258201811931
aF3.261040180670659
aF1.908265046397974
aF25.779765073296385
aF2.8877224522330347
aF4.690879193570648
aF4.734764979881988
aF1.3172014559578544
aF1.4984726524322116
aF6.905723356487702
aF2.3093231253828694
aF1.2173544734560704
aF3.549967791191054
aF6.047564519177368
aF6.768241152067911
aF17.904591368252163
aF2.870523152872168
aF3.090314759506372
aF2.6533177063411517
aF7.528124875899461
aF3.026862454132305
aF2.679248178518776
aF2.318533774238148
aF11.819432961231568
aF3.4748856013286793
aF1.1955048602624858
aF3.141975233916507
aF1.278028662898411
aF1.4952755803736362
aF5.4800318907747485
aF1.253270861348852
aF2.962467826037379
aF1.66527809340869
aF6.683636008852344
aF3.7067726695234855
aF9.915311341528584
aF1.5354917358984845
aF1.1542180619900257
aF14.682809490096428
aF5.089444885636157
aF1.8592270348306603
aF4.391983652198966
aF1.6303427323297566
aF2.3119898643296617
aF9.06007385805013
aF6.075965917056182
aF5.365216752187617
aF2.7744907302441746
aF7.978785118504469
aF1.6244224890638028
aF3.72590422338011
aF7.117623353568176
aF3.408596964802751
aF2.812899419657138
aF4.346685221171643
aF8.77905458987936
aF1.2061466070296338
aF1.55782262598381
aF1.1784725937492821
aF2.354269530911152
aF9.249170355307042
aF11.936246900734425
aF7.213294831153391
aF1.3592078552270412
aF2.4744587451113698
aF3.748408150196206
aF12.50585566710997
aF1.1041023560560859
aF2.1527161720025343
aF3.1753454878498477
aF1.2952100494417391
aF2.2820549214614876
aF3.614662680661584
aF6.261114951317972
aF1.4770938548086552
aF5.444318755232636
aF2.2065961276830217
aF4.463180202085238
aF7.357867459397438
aF1.4282252680674596
aF10.894320019461887
aF2.731028785377428
aF1.054803175491321
aF2.5921050222803674
aF1.8980299783611019
aF4.928175764948604
aF2.2526804712438726
aF1.4114364747906303
aF5.895949991690766
aF2.6712083108042655
aF9.529453280357274
aF4.333012757162647
aF5.009251778703016
aF1.0699026150716042
aF1.9785224436500026
aF1.386496611292664
aF1.7484557626017805
aF2.773245616536119
aF7.020085374169446
aF2.2974934480975007
aF13.537248506546756
aF4.677947698289087
aF1.7034135899175646
aF5.0929775472577
aF2.3829169232444602
aF4.064762483320662
aF3.2282256659261916
aF3.0887237726245136
aF14.004760532792767
aF1.4913813439132177
aF10.529341052573354
aF1.0353532256128621
aF8.187132259884661
aF10.43525313773433
aF3.2674193884203593
aF1.5047901606046994
aF7.062443394560833
aF2.1095082397754923
aF2.0260118358089585
aF1.6521624355573596
aF1.150658268958403
aF3.3658625463837355
aF7.186750703253324
aF2.023210876050347
aF1.900478570337608
aF1.4072340764931697
aF2.034515742085625
aF4.499967522620039
aF2.3720642935271705
aF2.367425998640434
aF1.6315518536908795
aF1.8787047846196077
aF1.4618179160550797
aF9.155456826901673
aF4.419733672974575
aF2.254910796671732
aF1.203703016831093
aF1.554378575474786
aF1.9416145278870234
aF1.7466063229389188
aF5.903487623996445
aF1.5249557933381463
aF42.07726651679913
aF25.782092398076518
aF1.5022162128188525
aF10.266004462587555
aF3.0267293856952384
aF1.4285884415718426
aF1.881238463590589
aF5.40808914535608
aF1.336527903350088
aF1.142571882449712
aF1.994653149822003
aF2.8006820685574887
aF24.270315506030357
aF33.707921106968186
aF3.9679583525672455
aF2.1546435163432798
aF21.037574429846465
aF15.96036950921631
aF1.1508787834123615
aF5.271047669936529
aF1.4812995728277902
aF1.518666845344633
aF7.744075901620827
aF1.438457878132209
aF1.3435873264636582
aF2.2901872431904495
aF1.9468854409876577
aF1.2720464397095894
aF12.961372445736146
aF2.3838015549724845
aF1.6301515427495183
aF1.0472950701012222
aF3.252578766640017
aF4.21053840421848
aF5.8710619688090455
aF1.4331102856664668
aF4.2607444585610486
aF4.605919598822583
aF3.6175349106676618
aF2.162637981239659
aF1.0535468961657315
aF8.859869607975664
aF3.223583532656368
aF1.4529313002757573
aF2.449545305692998
aF1.2340351181390181
aF6.729141960498922
aF3.2689087371945216
aF3.962131109765595
aF5.021032323577122
aF22.950132092026422
aF1.6003247457100678
aF2.074333415973154
aF2.0184542719302847
aF2.5114369076140375
aF1.9910617944829303
aF1.101115870390683
aF1.9640989829959923
aF1.4337306936982537
aF3.5899998800236905
aF2.8232004645012343
aF1.240128164091576
aF2.349561107548715
aF1.9710805891810792
aF1.4766071818221378
aF3.4040050714097765
aF1.142471514077427
aF1.0566708981941808
aF1.597820761890523
aF1.3301907798608381
aF9.563939069904306
aF3.645402173409686
aF1.3219425208850686
aF4.434556421109707
aF8.227993525344065
aF4.174357564198022
aF5.1485494985300395
aF4.036440496318602
aF10.847776911625443
aF2.108748243050774
aF1.5087941280121115
aF9.034476597131254
aF3.0297655375824446
aF20.040656957409805
aF1.1060794252095676
aF1.5770129579196488
aF3.0608915157359693
aF1.4175049334230287
aF1.2006645069082438
aF1.1577922416647726
aF9.045762053766946
aF2.3578078874095643
aF1.4792909090090598
aF12.086491247886485
aF1.204577438818345
aF3.55402927377382
aF2.3220982299361497
aF5.928975237678329
aF1.9062408605169214
aF7.525332980769613
aF5.664648732072203
aF2.6140923896195014
aF15.410165596493368
aF6.3798377925130225
aF7.047525222367945
aF1.658342248827612
aF2.806561751202306
aF1.0345606484732162
aF12.08586908530628
aF2.415518169849968
aF11.764419174939139
aF1.0865126012249795
aF1.6922022447068537
aF5.120529723268533
aF1.1300392111666446
aF3.6190467405787143
aF2.1849681750842502
aF3.284374356302851
aF6.644548315836031
aF5.474726876121835
aF3.1809816252849172
aF5.843658346366373
aF1.1115849679747503
aF1.414926210465405
aF2.4459714983805747
aF1.1631711569788348
aF3.400310295707546
aF1.4239131984874738
aF8.9020227678538
aF1.1224499166168356
aF3.805885163024799
aF2.2771407743573513
aF18.603663102422445
aF3.039235883178932
aF7.511195543811649
aF12.754872412240235
aF1.5517620102852703
aF1.4621944767479964
aF3.6495201500098857
aF5.649317458800974
aF3.083180664237191
aF6.585382149065048
aF1.4335897889124378
aF4.1179246220867425
aF5.48517830621881
aF1.6020273541768022
aF2.718214901202752
aF1.0293471108305747
aF6.512578310437471
aF1.2930563025585031
aF2.1255706486978685
aF8.791065140131973
aF1.7854381885175703
aF2.641465333161666
aF8.492601106515986
aF4.104109579144807
aF4.095602523439928
aF2.099342869649896
aF1.3028725153619118
aF1.8983875615194277
aF1.4038934401259207
aF1.6977338186969957
aF2.901023144112944
aF1.2037580324314854
aF14.161480402882106
aF2.892756790051116
aF3.6189839583991392
aF4.109883480523094
aF1.5920383547661172
aF4.041179219096553
aF5.889880744732575
aF1.4816480765843691
aF3.0115959020578718
aF12.45153664229765
aF5.679367471890955
aF1.3726278544398034
aF1.3101198772837686
aF1.3961763660538296
aF1.2559821959922943
aF5.102011835811268
aF7.227668990466161
aF3.0305391774801986
aF9.057762620852678
aF2.5929358194977827
aF2.2174563810721466
aF1.5216907919569151
aF1.1845344682303205
aF1.759100394135058
aF2.5969158239530605
aF2.0029338717118095
aF2.508715526695143
aF1.699510451305041
aF1.9220896299520889
aF3.5601061306128057
aF1.2953225334246576
aF1.6916072459206284
aF1.5152331662168568
aF3.7287301303793514
aF1.8839394343299827
aF4.669758607535002
aF15.034691218082406
aF2.375810890870823
aF5.608194443784427
aF5.737341540899793
aF5.811349556238056
aF2.6772313978493156
aF4.854997300730819
aF2.211345816310196
aF3.7381539573645535
aF3.349681904912854
aF11.930448941488235
aF3.7190414075847253
aF1.2398040849621188
aF38.312410967869425
aF7.948771177138393
aF4.084284812772515
aF16.22531849482402
aF1.3778272944549395
aF4.380152235511886
aF7.649912021599624
aF1.9673601886976753
aF4.445641677310254
aF1.5662170220749796
aF4.120469381072643
aF2.2445641595341836
aF1.752629861614081
aF1.0753930540056504
aF2.415127828742298
aF4.130734553931219
aF7.379535158721937
aF3.310739879768829
aF1.152530492473726
aF1.584559181286134
aF1.902679939383461
aF2.963183882249574
aF1.9195684987470738
aF2.110578054237413
aF2.802903854255784
aF3.4611588619204965
aF2.554958461230351
aF2.5170968813760184
aF3.5033375665491278
aF1.5177747819808651
aF1.617845699356812
aF4.605845845566431
aF4.177840207308642
aF4.191033943127252
aF4.150270529125867
aF6.12785661145232
aF4.21092320451639
aF3.6695567559031663
aF1.991688008118043
aF5.316017069087929
aF2.3915700429389637
aF16.18441985068763
aF1.708941670493525
aF3.2556581342004822
aF2.9953436516094527
aF1.492692086256504
aF5.09548170854708
aF2.1950467406260494
aF2.11591512966042
aF23.4940925681297
aF1.3673605265881452
aF1.834674069492254
aF2.419497101214196
aF4.851785744877567
aF1.1644730929830698
aF1.6882457085706222
aF14.581608331485684
aF1.0446368533774077
aF1.738390700526745
aF3.8404987659367853
aF7.673564086832069
aF2.2091599365869667
aF1.5562308728975103
aF5.408077277946012
aF1.1622155527823563
aF15.080895529266357
aF2.935241278492719
aF1.3979812632268673
aF3.567973980849229
aF1.5201156583629842
aF6.131269220789353
aF1.4871653838086627
aF28.03641794382985
aF14.042054934312674
aF2.8643489048106647
aF5.44745335201349
aF1.8600383059793693
aF3.4002837143855893
aF6.136482955065925
aF5.3648304661198
aF28.456264174974145
aF3.3028853677782375
aF3.6374999904893035
aF1.173781186941531
aF1.2765233852131892
aF3.0191906244921847
aF2.190714534896393
aF5.006307965625149
aF3.276829595702012
aF3.466863557543024
aF2.174932119341109
aF2.3443157176316025
aF3.91045817404823
aF1.2058743014902942
aF2.186465393852446
aF1.9278759840276372
aF7.212673280716573
aF3.6204674424353525
aF8.421938651766038
aF2.736305450044072
aF24.71954486772379
aF1.5185953754362933
aF1.9472291431836675
aF1.7252682154540577
aF1.2917582539261767
aF26.709983631857618
aF5.507039525685191
aF8.141379215713176
aF1.9873483747630527
aF2.246564512994785
aF17.870900322714736
aF4.712070382111335
aF14.911568931111516
aF4.410380230657653
aF20.27536788949504
aF22.32069550316209
aF1.7576769566615817
aF4.692734499346796
aF1.308914745138907
aF1.4519998340613194
aF1.2653460615493612
aF3.5085325835758674
aF1.5016980464865153
aF1.1753759634773606
aF1.5175114231746907
aF1.2652847155732412
aF6.158715399684066
aF1.4790145952388654
aF1.2703246583307821
aF1.6502976052477283
aF3.7274336941806223
aF3.3685651117431425
aF9.96871066926029
aF2.136375222768176
aF1.19807436463993
aF2.4127573190093865
aF2.5141944616723846
aF6.9511754362212095
aF2.1627830051456027
aF1.5786261582539731
aF6.321375496062588
aF1.8823254583258462
aF9.1541639102705
aF2.0690415743674797
aF4.055007041896792
aF4.311580505635954
aF4.999760408815047
aF3.7451016645455097
aF3.48895611838166
aF3.3157148987005303
aF1.381631724085637
aF2.6630730294602225
aF19.965999726513598
aF5.485546032044771
aF1.2892060031247838
aF2.417290443540452
aF1.850066142559994
aF1.5677870466647845
aF5.942360009958571
aF4.116319256055651
aF1.580476249599159
aF2.1062503372682735
aF5.853173444133492
aF2.7978790553506796
aF11.366383386219177
aF2.2875602700968454
aF1.29543613373303
aF1.3488431542587038
aF1.5994297371163835
aF9.169803486459289
aF2.388799474824838
aF7.6335289706970695
aF8.995520077403688
aF3.1291788584046967
aF8.409972274317782
aF2.1812351419052693
aF5.752721973692951
aF3.228000837141125
aF3.6002992620579324
aF1.392319939897142
aF2.1589025833495437
aF1.85455869099517
aF2.5571312179562713
aF5.218748874938594
aF4.177378687175765
aF1.5154464018406197
aF6.515749467398638
aF5.641840411990627
aF1.2538517900103816
aF1.5015524579821802
aF15.636815946668202
aF1.456110605920429
aF6.4433101207275625
aF6.804155433441112
aF8.767560183864184
aF12.130434948745128
aF1.6344351864056694
aF1.4342020923642067
aF1.0871855813661253
aF54.035841906347216
aF1.6995415902994138
aF4.181715810883713
aF1.1854148665518658
aF4.098144402726216
aF4.912438158748788
aF1.4029226415666927
aF2.752526435168776
aF1.8500557961787363
aF3.925918818883127
aF2.1606484374871124
aF1.9182316149629661
aF1.4109883342390133
aF5.528412750111547
aF2.380026405586943
aF4.916750411379337
aF1.818904045057767
aF2.88248395707394
aF2.1855580849172846
aF1.2760027979439794
aF1.3136170585358562
aF1.396891149673535
aF1.837945234140299
aF12.547012705030937
aF6.867250553276655
aF8.363357546598426
aF5.551107041147419
aF3.064358455935864
aF1.0236304478052025
aF5.334458192025056
aF1.193912947834531
aF5.543890628585119
aF3.2609505583447045
aF6.4974088513662815
aF4.343666755829603
aF3.894111401550251
aF3.232403022806872
aF2.6783806354479514
aF5.413014814473932
aF5.853983094979504
aF5.233575267645949
aF24.35816228420825
aF4.808421224660472
aF7.312694568926187
aF1.7271946495085466
aF6.951999854584857
aF1.7439476322189853
aF1.2247793930509914
aF1.2024851028943047
aF2.857520370218518
aF1.5919573946817942
aF2.76580813121516
aF2.8386865361892886
aF3.350369194176893
aF2.1763283909879183
aF2.396933034752971
aF1.2671768757583426
aF1.1233545373051963
aF6.976076905838387
aF2.6747700004086465
aF3.006801771029546
aF2.58126732949555
aF2.6488548264939795
aF1.721737424202185
aF1.673886116752913
aF16.554792900312567
aF26.865897536771218
aF4.233262378033802
aF1.5049593410004034
aF1.3995588382115693
aF8.1971243553947
aF3.8813424270693893
aF21.187996517751664
aF5.954245095946597
aF2.4676892700694224
aF2.231437431357837
aF8.43985770988738
aF1.581534048768299
aF9.269368352666405
aF2.1859416065507777
aF1.310974639748501
aF1.9938243970576488
aF1.644570716164149
aF1.3680506038042874
aF2.8086904385223628
aF6.2002822880935575
aF3.6691639403451464
aF17.803611532300796
aF4.098588224935512
aF2.0591866291806227
aF1.3915144876877146
aF6.582730975165231
aF11.187514839164805
aF4.929529207713143
aF2.9183400822183385
aF13.491148335967472
aF1.3684931254016466
aF1.3865584036980898
aF2.0833549602533474
aF2.0933759791676683
aF13.262457028296868
aF2.4029141272138035
aF7.827384602882088
aF9.067568971439371
aF1.511870635608099
aF1.6892542891636337
aF1.2830287795202069
aF1.9468781106762296
aF1.1660934003849783
aF8.945543833995787
aF1.6736547667833415
aF2.143357256622881
aF1.6109587714046953
aF3.31988564362927
aF2.9029486415568684
aF2.0896678687705283
aF1.4843340931789728
aF7.322875774592369
aF6.911667846951379
aF2.499306310031588
aF2.3550686684713824
aF3.218932112302949
aF3.161319969180891
aF2.1202910951015443
aF2.309167590011875
aF8.278783861375926
aF2.3624310311749777
aF1.299846131581091
aF1.6933461345465086
aF2.803810994986737
aF4.0113392328584405
aF1.522018808376851
aF2.0252754675816247
aF11.145464595304427
aF21.021120076878763
aF2.650170418000464
aF1.5867857941380492
aF16.062730480684063
aF1.2471398268504317
aF6.065030743935833
aF8.237673915968303
aF2.847205261368802
aF4.814580354578748
aF1.968768796545311
aF1.1237447061878285
aF4.216649506007071
aF2.872596250739862
aF19.243825260892482
aF5.387974227568021
aF1.927795239997341
aF3.411481428530226
aF2.8362491033278863
aF6.224136301694427
aF3.857656786936686
aF1.2481824731920859
aF14.028246073541586
aF2.181540157274157
aF2.2097663971740586
aF2.234801306356593
aF4.777637226953336
aF2.489308840907342
aF4.506385286453058
aF1.647903968757545
aF1.4488697103847925
aF3.1515431467253583
aF5.1781561119268815
aF2.42318485765193
aF16.603174878295448
aF5.6933402020630135
aF1.0769763641030443
aF5.686171232189654
aF1.5911115826983504
aF2.8267100391969677
aF1.900138600922343
aF1.3483204458512532
aF1.6684484524771355
aF1.8650591029270402
aF14.624930242402874
aF2.877631375006119
aF9.008520350717532
aF10.518498938229364
aF2.5378295967021645
aF1.6044933496953075
aF2.154049624973631
aF2.6130914206657145
aF1.2855326053724454
aF4.528293081844758
aF1.2752709690220874
aF1.3578937833853384
aF3.6456305251938814
aF6.236070760911382
aF2.761858619974641
aF4.598255203582741
aF1.4717785724946295
aF11.93443539369326
aF1.8490188866649688
aF1.715198326734991
aF5.7371331211821355
aF1.0657757364389968
aF38.02292147353607
aF3.927619705238989
aF10.333845265465675
aF3.986647008541722
aF1.3197755660126786
aF1.6578104718898148
aF3.1136885242624897
aF2.6343329216202616
aF1.5187849276626255
aF4.535652038307602
aF8.05501965388172
aF12.808795616951372
aF1.8249566756374416
aF1.1321116650298861
aF1.3538276217378291
aF1.0652495785784222
aF1.7472247341887153
aF2.394174122184924
aF1.179571982978817
aF2.005398999763137
aF1.4953919271473144
aF7.13194577422536
aF3.635736085311701
aF3.230732138092414
aF1.6606915279155998
aF3.46173607482748
aF1.7702984482236088
aF2.0449484257865462
aF9.159416883373838
aF2.2934991114224834
aF4.507559004209583
aF3.669477463592671
aF4.6177721098444575
aF3.175440709305796
aF1.3864707956629925
aF3.036621513829716
aF3.119414103401032
aF2.890431894593256
aF4.817254731432925
aF8.084008374753157
aF1.9229901761346746
aF3.1536646507178134
aF2.1983212778336885
aF2.517749804331728
aF13.143420571260839
aF1.3405207120840839
aF2.567401322063949
aF6.053175083100164
aF9.308908231762063
aF3.407724107334608
aF1.70221359112177
aF16.306654099289837
aF3.6294601096586527
aF1.6161177845011172
aF3.525562022685472
aF8.355504570609227
aF2.575808375289177
aF5.123866447697333
aF1.4533836531221291
aF4.560869114121963
aF1.5327103537488938
aF2.5859866739603303
aF1.5993512463350759
aF1.7124259836814697
aF4.288539683421172
aF9.224915498127514
aF1.846192182389715
aF1.6182676683693318
aF1.5216753736014343
aF1.5780787109596848
aF2.9184030342961
aF9.757282330460638
aF1.60725625908931
aF1.8792054824282391
aF1.3927581957492285
aF1.5426496435343662
aF16.439628945534366
aF17.073753627021357
aF1.0376282256450056
aF1.7294091697144134
aF1.8473895338223418
aF17.986749596920582
aF2.996721230954143
aF5.659819021588342
aF2.537439300347554
aF3.990127919497737
aF1.7160751637823435
aF15.29061758885416
aF1.199749840199319
aF3.392806521741979
aF2.3520957344622744
aF6.348013884442983
aF2.427947930638417
aF5.396135483651941
aF4.962426100030006
aF7.359393478449232
aF2.5505683506994488
aF1.355648328561401
aF2.8232216639978156
aF2.97713851002672
aF3.0254883841849494
aF2.1601630471474422
aF2.6606158486788334
aF1.3208596899818164
aF2.1697318127037204
aF3.4696068082496154
aF15.311629461897919
aF5.01192994085117
aF1.761554668555418
aF1.8260010801845226
aF1.2482515638249994
aF1.403368578192092
aF2.1054019193740143
aF1.6643944029155484
aF6.14013496313996
aF3.6687990087671922
aF3.9127422293882876
aF1.4405742734045413
aF5.140448315289935
aF1.635056938614258
aF1.3361341622380136
aF7.178870206063141
aF3.7273868249801168
aF3.3877551471062
aF2.0110041258043707
aF1.3692833951068988
aF8.208182840454633
aF1.256201048995516
aF1.203271877083693
aF1.7370674569642992
aF3.1737387780710034
aF2.9990355283053978
aF2.667686967486759
aF8.196541233301152
aF2.7496948672179093
aF3.5752768366221694
aF4.344196829956182
aF4.344423108105102
aF1.309073595018155
aF2.3367699083715188
aF1.0310209448728995
aF30.951345758624075
aF2.6184026179262525
aF1.5789327520311855
aF1.6365887431333117
aF12.975717753942467
aF2.5599112270543953
aF1.215911427486904
aF1.7528511682590417
aF2.5215108551815715
aF49.85255806356808
aF6.474929723317224
aF5.290657878325673
aF3.348385343295712
aF1.4804488740411774
aF1.5503456952982344
aF1.4886698562693077
aF15.908403798364034
aF1.9587756979768904
aF1.3422230243854227
aF1.5857100129609418
aF2.463202821562802
aF6.379263963849291
aF1.9516397151980118
aF2.150679798212101
aF7.644869266986018
aF6.4303821988058845
aF4.521891670815353
aF1.1422489203988673
aF1.058262369829552
aF1.7817563788857909
aF2.027695576784159
aF2.5850137254827605
aF1.660405223338214
aF10.22589991668393
aF3.279620617863019
aF6.82059478743052
aF2.0842825408841423
aF3.350424416295082
aF2.2883511287088014
aF6.547861947645093
aF5.11656824725656
aF5.1681161360389245
aF9.470944064133123
aF15.721527752075197
aF1.516413471205619
aF1.2564098974572209
aF1.1242635328122974
aF7.911407476475786
aF11.082752315173163
aF2.042778431631662
aF2.878440104700607
aF1.8164870103893358
aF9.273378750659388
aF7.155747730875958
aF5.31657756413131
aF9.06621525965128
aF2.4125247373441217
aF4.475943249805087
aF4.104805764627157
aF1.3733020555448012
aF1.929741013663112
aF1.4453473952376896
aF6.485939977684429
aF3.219157532479717
aF2.8366437157856756
aF5.392614791913263
aF3.148369962062715
aF2.653795984953543
aF5.20835095048302
aF1.9596999806428463
aF2.1489938439359393
aF1.3149265961857806
aF2.947404960606989
aF2.8559365938855366
aF5.0972319842209926
aF10.45113970394803
aF2.4250665277635526
aF2.3209416874551407
aF13.999024722918044
aF1.2996651300437616
aF7.7615772495307125
aF1.6566255510281578
aF3.084515747134454
aF4.6448257833713
aF1.5244276142050115
aF3.022881242899868
aF2.6436404679962036
aF2.0942017767691685
aF40.62560183196047
aF5.355914664118335
aF24.41031566091399
aF8.796467020112418
aF1.4759968213379515
aF10.592874393514036
aF6.2559589409376875
aF11.196342139856469
aF2.084029641270178
aF28.558083672916087
aF1.3190315447465257
aF4.2814012858235
aF2.4558665622313516
aF7.7238780150218
aF2.4706300417465465
aF4.255176603080107
aF8.15937777205366
aF1.4588251904617069
aF2.043107350107738
aF12.550064550880174
aF4.601370592826982
aF3.3013226457047002
aF1.7111378080332527
aF1.4045572667026214
aF19.11893795502913
aF5.311980910596291
aF4.5969983718546406
aF1.7919543931744666
aF2.4777366828349887
aF2.203427744143627
aF11.03600911700432
aF1.1579690532871012
aF2.367494016592263
aF7.197080180627048
aF1.6888477888180737
aF5.524490367539042
aF3.2968015173547656
aF1.5703418772308466
aF1.1365585570098085
aF1.2451909886983734
aF9.936826904047972
aF3.8884880371856183
aF1.7602738128153146
aF12.653205194249068
aF5.431196866233008
aF4.270265283001167
aF1.999870004551601
aF1.6844451859996625
aF6.2853243934989695
aF3.5675093892686474
aF1.303042850055515
aF1.586140225255481
aF1.826697041522524
aF1.6027257510834314
aF1.3318811987435903
aF2.441071504601384
aF3.27004981367141
aF2.733354333520047
aF1.250708344444916
aF1.5878505767463247
aF9.088444542357964
aF3.4366493159138214
aF2.886389333083734
aF1.1878748700653066
aF4.149299789528117
aF2.5550867649077715
aF1.2756438523728497
aF2.653529224849724
aF14.509572487798478
aF1.9209306874440557
aF8.073908126545456
aF1.6013250143752757
aF5.6937701525537285
aF2.568528105136005
aF2.7122838308218693
aF1.4981464141574052
aF1.0945833424063798
aF2.224440073955509
aF1.731380782968983
aF1.0704498787201928
aF3.749669300116016
aF6.00005594098484
aF2.065002027435715
aF1.7492229572109008
aF3.39234321606492
aF5.829184548286807
aF1.627860542781727
aF7.085844769023026
aF1.908039448718028
aF10.456766768658907
aF3.1881161884756293
aF2.7978474111679774
aF2.2941627639333344
aF8.610576299442585
aF1.4450659594120268
aF1.950497193261765
aF11.02173118361328
aF7.354168973037541
aF2.100651213637209
aF4.24058643215191
aF1.7378426405332565
aF4.03373112251464
aF12.139661919858167
aF3.33129175311187
aF2.278729317160917
aF1.9600567374249414
aF1.8341199628891522
aF5.748876962235
aF1.315660828746277
aF2.513453702536397
aF2.1980268902685602
aF2.5162776933029227
aF2.5955196371633065
aF6.910577304379603
aF3.021220556283425
aF8.722251049786413
aF2.982538103847894
aF1.335454928669476
aF9.755145138469882
aF2.1321822120025833
aF1.5649701909866984
aF1.6850863600636354
aF2.5070910844778824
aF1.554737312200811
aF1.322474649890254
aF2.6197269931487117
aF4.5878561229538075
aF1.0777112517787875
aF9.674904083655257
aF1.1679120091121975
aF2.745780466551077
aF3.283786527604744
aF15.9311327454974
aF2.863613298061005
aF1.4911691227966655
aF2.4664500961544915
aF3.830864071176559
aF6.159887183824049
aF11.0094719566633
aF1.1406329149355214
aF3.4626165329450784
aF4.0499711808262315
aF1.3404595208504113
aF3.660724458988685
aF1.6266259308959623
aF1.8173118185476393
aF2.547166318066439
aF1.5877439752359763
aF13.933691864215136
aF1.5012752602090718
aF1.8882440524032766
aF2.507436880055409
aF10.103832410190694
aF12.116765401737362
aF3.527040908729997
aF1.043744998063966
aF1.0357701951303964
aF1.0871031416355017
aF10.977549798956083
aF2.600644658264428
aF13.38550267400733
aF3.576407737151994
aF5.756406544978561
aF1.215035458304953
aF9.727294847736784
aF1.0162238878791392
aF1.4620439314625333
aF6.563829061890137
aF1.4739305909531568
aF4.032450799993003
aF3.6554610418438918
aF1.6948355931430976
aF3.8973997528429107
aF7.19529544127286
aF1.7804513727548514
aF3.0091446648032196
aF1.6418886141974445
aF3.1331191656542137
aF3.46768419851992
aF6.859432816006193
aF6.599125228651765
aF3.700923371401432
aF2.4289213165766737
aF1.030773150925564
aF1.3305759509740258
aF1.0512285282948608
aF2.78868586416046
aF1.5984227294054965
aF1.459736133915715
aF2.109993147785132
aF8.89212443845819
aF1.1887205635488611
aF3.237241484260035
aF1.3185395332448826
aF5.354372961721677
aF2.6579581878325005
aF1.8406948914865846
aF8.438680385765213
aF1.8457490840568689
aF1.9815636711621478
aF2.2789755160030922
aF1.9497667460704717
aF1.1861844815392526
aF4.107071488762761
aF3.30214655767811
aF1.421448145327179
aF2.926921314671341
aF1.6470721530946406
aF4.442773131861579
aF5.213580382852651
aF9.397235053957452
aF2.7172991290938135
aF2.5702197064709242
aF4.503266038090609
aF3.65182204759492
aF9.242209908737365
aF8.96109982412819
aF3.8777450198439825
aF3.129823484431278
aF1.0766607043368759
aF5.218118115212598
aF3.440961892988546
aF1.5234929057630353
aF1.534506678456385
aF3.8951956703127477
aF3.0112227695037306
aF5.519713112539563
aF6.5773758874696835
aF2.497778423404349
aF2.7565724377702043
aF3.3198650332571784
aF5.943502822506438
aF13.190930654852355
aF1.7823567415046049
aF2.38948178384334
aF1.6864218034476945
aF4.995369316085416
aF4.169679097730337
aF4.976839300548794
aF1.7254332625817426
aF1.5788307123724472
aF1.5276501902858697
aF1.3804935466996104
aF17.91103853091799
aF1.9566540644479495
aF2.8984978148207743
aF4.224988464613634
aF3.174031350123407
aF3.792379762940235
aF1.8375139033209262
aF2.035027225956732
aF1.074520591857877
aF2.719862212722772
aF1.0839478295708285
aF3.939014170659051
aF1.8101926426657375
aF10.079487805090654
aF1.0454167351100485
aF1.0064808439925572
aF1.2280048873192986
aF3.615142625853891
aF1.642285109214564
aF3.9439642550412706
aF4.035862207258392
aF9.748638133465146
aF2.4861474453294123
aF10.653458761785528
aF2.077246843441412
aF5.11572743513945
aF1.9559693218580911
aF1.4180684492571696
aF2.2495494164811722
aF7.199930012096336
aF15.339283985755841
aF1.9348721275510108
aF1.412789894153134
aF1.7286382570201868
aF2.639148671605814
aF4.895103148742291
aF1.6228272162347122
aF1.1589257651479616
aF2.7344812326706602
aF1.4784919150411313
aF1.5289572973561687
aF1.5287275730081271
aF5.499300448238785
aF9.504159418024019
aF2.34347065390945
aF1.1020822128000374
aF1.6882196332713555
aF3.4120744928656914
aF1.2756698415048784
aF3.4564789072499793
aF35.39961195247064
aF1.5945691095632792
aF1.3925209290692222
aF4.839626652874981
aF3.0120681478150115
aF4.026294855327157
aF1.5014099884196053
aF2.191894853252424
aF1.107304757190927
aF7.758583250754499
aF5.690860873003273
aF2.083543518757303
aF1.4246068840651784
aF3.989428757713151
aF5.165728426596269
aF1.2907613994232188
aF1.591138359730429
aF2.5900716524990552
aF1.609310360566635
aF5.112420223994296
aF11.713533227164323
aF3.564766043889231
aF5.24855281717184
aF2.0075318321997266
aF1.0718403163115433
aF1.26340927064053
aF2.9276529880035778
aF3.088169629421995
aF1.5072577987692368
aF1.1462098918194228
aF4.104237465207603
aF4.812555429264758
aF3.0481977342201008
aF3.4349734582716254
aF4.180579518844462
aF4.079660966724762
aF3.988381007185535
aF3.424536703627322
aF3.895122583410048
aF3.391411569613893
aF3.031444733096885
aF2.3441243692899287
aF2.6213600857723147
aF8.927549254049483
aF7.307046811953212
aF2.8194757461167135
aF2.5647309547492707
aF15.923370669294057
aF6.259779704667182
aF2.131000733879923
aF1.923455393555897
aF1.7622680931480539
aF1.621227351350805
aF2.2208714849247864
aF49.33471599490051
aF3.2713336531436052
aF1.4017371078077823
aF3.763719710007898
aF1.7210929017311685
aF1.2165558477767038
aF3.10666067007654
aF2.3727834340841794
aF14.365508440844858
aF10.017866503393801
aF2.599195418919326
aF1.286116552024076
aF1.1577286261211774
aF1.1270862710978737
aF1.5030234483914364
aF6.121866554810587
aF5.233797133017189
aF2.0329091846921123
aF1.5682001348760422
aF10.49616470480066
aF4.398638733917656
aF1.445734282585649
aF6.254967619506318
aF3.777985472886598
aF2.044116331846175
aF3.754812230605074
aF2.1128455520371334
aF6.09607722766074
aF14.748260299960961
aF14.333666250418645
aF7.168321503146762
aF1.0740471501267588
aF2.0064592880033643
aF3.365619480293324
aF5.466432569673907
aF2.0892703662505157
aF1.6833473759681972
aF2.333231470043199
aF1.3122704715771292
aF16.34666655306829
aF7.558891420662901
aF3.544896435070901
aF1.355843680220945
aF5.751487584916865
aF1.3866835027041227
aF7.61168693259856
aF3.134572059478677
aF4.057902444280084
aF1.2831252162128721
aF2.5686377722298777
aF3.698386946606982
aF1.7806072178924646
aF1.9881377494451271
aF1.9253233817996003
aF1.3247235004066282
aF1.4430508816740695
aF2.34547678734182
aF2.4768018690800178
aF1.8348390470258065
aF1.5738072016010791
aF1.569595093400868
aF3.7844564327952406
aF8.34606657159579
aF1.745443286204131
aF3.0645691786693474
aF1.4465732416140338
aF1.5005800192421725
aF7.680888154571292
aF4.2151926867661516
aF2.6624909545155035
aF1.3846067243473543
aF3.3680722192246093
aF6.7555680213113485
aF9.564515700352073
aF2.193964841992888
aF1.1943892307604147
aF2.0472802482900723
aF2.820409666882277
aF1.427136066932884
aF1.9955358078639407
aF1.3636173563154705
aF9.010203976534278
aF17.396298170650564
aF6.601308657129588
aF4.318815075736796
aF3.592648617206846
aF19.374714060914382
aF2.1569126165252643
aF3.8711745794840624
aF19.54048908100595
aF1.834847273684162
aF3.548297379712883
aF6.019191730845738
aF1.8456951879974641
aF2.670525169549339
aF1.6333862811340658
aF1.9657888348705042
aF1.266839122403777
aF1.2616190041791424
aF2.891313850052486
aF14.28294688806065
aF6.036598015461862
aF2.775643709621713
aF2.6043544817089077
aF5.7843333577122795
aF1.7701000540071852
aF6.038125089588502
aF1.3350050900528831
aF3.286538158817179
aF3.8545410089941954
aF4.0822962144917065
aF4.330500841336365
aF2.1234907310921494
aF4.270590234019985
aF3.868853583614138
aF7.409616645354079
aF1.710684936547516
aF1.130856305197966
aF2.4278017316172975
aF1.8829883264205411
aF6.935237622636652
aF1.4230577264074211
aF3.9208360939341977
aF10.228670926333095
aF1.8066325080131471
aF11.541220960358343
aF8.773464269729704
aF3.2374457565126082
aF1.3663440286300843
aF7.38426840750896
aF3.128105645207149
aF1.097634583657379
aF4.709549441328215
aF5.377479980728515
aF6.122655964746992
aF3.8087458322944427
aF5.158892999466944
aF6.902047133474679
aF1.3511305916688903
aF3.2555724467896767
aF2.0728506066994172
aF1.299031806829045
aF1.0346415106374034
aF4.8071968602640816
aF1.5179189260765036
aF11.465394651615814
aF7.89348982360819
aF6.0858649543834495
aF5.699737075264028
aF11.712514731356881
aF7.407752322787217
aF22.45202704242149
aF1.592899314545336
aF2.5380561210359627
aF1.1746940633845764
aF1.760953853281113
aF1.8337866786417085
aF1.192034234423098
aF3.2174802545005132
aF13.544860964405482
aF4.523488332815731
aF13.942419989000708
aF2.0738029248669334
aF3.0202066762788036
aF1.8382206672077446
aF2.1049642865016702
aF1.4271835726699629
aF5.274213148866433
aF6.466476808496166
aF2.3784423019347467
aF3.900731025250089
aF5.276242872038553
aF3.3364066147372036
aF6.069419204466699
aF3.4970972884537246
aF2.505063876841183
aF7.880852318295655
aF13.374153132422073
aF5.105171202062546
aF6.339340518930684
aF1.3473682746580014
aF3.296195813079188
aF6.689923214566366
aF1.6770144675311005
aF3.0268127659803588
aF3.692595865182735
aF12.040324968537377
aF1.1461422984028198
aF3.833845150729721
aF1.9995063057313933
aF1.8901722515315562
aF3.2048902950543274
aF4.289169393555549
aF6.523715157067948
aF1.3425301259365894
aF54.55759415680943
aF1.579945325979614
aF1.5786565520211946
aF1.4563347287624524
aF1.6441308273764366
aF5.231461717939675
aF15.052270251113503
aF8.742775649535815
aF1.0618022886918776
aF1.1870199077888282
aF2.186713122374039
aF1.6910739493181066
aF31.65628204033382
aF4.58286886443344
aF3.3232291161089305
aF1.3874023161348228
aF2.8801396523753877
aF2.3879122194431184
aF3.659433857901066
aF6.856855679472683
aF1.9755171167662884
aF5.134705124059731
aF1.0766321871875015
aF16.03358155104043
aF5.763256297098714
aF1.5460755753627944
aF4.424934748129968
aF4.926237865391578
aF1.1996366234217968
aF1.6237699256694167
aF3.5072628137238198
aF1.156833546830828
aF3.7301948778071146
aF6.815151354082493
aF1.5581027151612346
aF1.4639180635693891
aF3.446031800217284
aF3.700452237585908
aF1.4386044910359195
aF4.413787719254721
aF1.0853966490509526
aF2.424563916608401
aF2.5382546553840912
aF2.854391690637192
aF11.75762588470171
aF7.380494007047633
aF19.580234720509736
aF1.6340807566957367
aF5.933234607018808
aF1.6446160718486464
aF2.607770796649605
aF5.18535111935364
aF5.579915226167709
aF8.323173674670944
aF3.0246085543986894
aF2.7439160654413386
aF21.390429828054966
aF7.763267405195789
aF13.246697051738114
aF3.1210965238291326
aF3.426052714912395
aF1.5184536783990086
aF1.2500866376452917
aF4.414107027193545
aF16.740401063239105
aF1.1094515360839066
aF2.947165487731946
aF1.9804309425851936
aF1.6911831621843116
aF21.24941810964743
aF1.3365881504878963
aF2.056269758274952
aF3.491100949435955
aF2.168398252140268
aF23.21182650798722
aF1.3945464032686827
aF1.3017563239948622
aF4.913130988768097
aF1.1671599474419958
aF6.029731105163884
aF4.786918578125441
aF9.178687957437006
aF2.4784761569813423
aF14.646258596145914
aF1.9230547625181562
aF21.12987445872153
aF1.314160077923058
aF1.439715131217381
aF2.577128849115776
aF1.1560060878899818
aF1.345561307774468
aF1.4156730373777662
aF4.345657759672204
aF5.072806809406166
aF2.0102473799712914
aF3.0146639414580205
aF9.298917467764232
aF1.3498369790369136
aF3.2399652384574447
aF1.365010660470801
aF2.281067115871239
aF9.706522004284588
aF1.334897621572021
aF2.761422814593452
aF1.5118423671697043
aF6.643889298696997
aF2.0322217033023766
aF2.4379738959681956
aF2.4824916702477973
aF23.444977599916548
aF13.81624674714978
aF1.5977999917902896
aF1.1958180504954987
aF3.419597784846245
aF1.0599864654818758
aF3.799602111582178
aF1.5918435656600676
aF3.1219490160429864
aF2.181408003506213
aF2.849751678132666
aF4.594278754346896
aF1.378357988607627
aF2.220133440519009
aF1.8799641886477336
aF1.0742821926569335
aF1.9501291011301398
aF5.2524383247452615
aF7.427893980407071
aF6.937060234494594
aF1.1931321890445155
aF3.1199708913753565
aF1.481764653588448
aF2.4348177820614456
aF1.3982528595214763
aF1.515729957042762
aF2.548833252384003
aF3.0143381831693508
aF3.3556624698772306
aF3.7983628672489607
aF10.882910861262232
aF1.1617370715930107
aF3.1858539993301966
aF6.410949828509368
aF1.3509033374459853
aF1.9428276958094686
aF1.462259816324877
aF4.028347280652972
aF3.833731905398222
aF2.837498233250779
aF4.710206874835006
aF2.2598098435991316
aF3.719098906888908
aF15.421913669959396
aF6.639614208218937
aF3.692409438385173
aF1.018911486185174
aF3.509345011794704
aF8.363068244128167
aF7.7384676364792275
aF2.66386543620669
aF3.676327202896401
aF3.5074100872430654
aF1.121991414595996
aF8.803100059384551
aF1.6074937601326018
aF2.1172915353341533
aF2.5836306258160633
aF14.672968800594044
aF4.681568740837205
aF8.81243969664699
aF1.6849804967023272
aF4.127106760530968
aF3.0088588952994946
aF18.363107468739784
aF2.115567635772843
aF1.2861354215933072
aF3.9339379468702558
aF1.3043072024550895
aF1.7708285591032262
aF5.013181627171904
aF2.8482615055959757
aF1.1981195552608679
aF1.1834362551069224
aF1.5322692169266225
aF11.234008807494417
aF4.001971582899773
aF2.4475275636513634
aF242.1811472895573
aF1.853348760029755
aF1.4211724210669572
aF5.173150444853137
aF2.4775167660993374
aF2.6571922706259
aF6.009713620328648
aF3.426418591634978
aF2.01137147504844
aF6.873151226517486
aF7.8459261256627775
aF13.962894292226775
aF12.961715933266897
aF6.654003278114371
aF1.8137944443789278
aF1.9273022717810449
aF12.869599666769314
aF1.5267562443313185
aF3.648440773582664
aF4.5269858704306785
aF8.22418882519024
aF2.0629241480383964
aF2.9648765646739137
aF2.1161938359390926
aF2.7996444539862786
aF1.0809645247938584
aF3.290468951341358
aF193.77594933816815
aF1.106637041105935
aF1.1451862416580296
aF3.826285608098912
aF4.5754337957514295
aF1.611302329346128
aF1.9924694134743297
aF5.917190543203701
aF1.6164010147829604
aF4.124725066777165
aF2.874179684868503
aF4.712921110360719
aF3.268225309236729
aF2.7618477131131574
aF8.73689739875753
aF1.9096276065127258
aF1.3237940105959096
aF1.1539321664283049
aF4.7059733681273785
aF17.205966058977594
aF1.2797271723666894
aF2.4126445022848992
aF2.7930157341072395
aF18.045236420051566
aF1.3306014174596952
aF1.4309269640481925
aF11.584523556118477
aF2.477906874818242
aF1.4609816703148633
aF2.6762156205013565
aF2.9511809583346196
aF8.334334294768336
aF2.4176266767243937
aF1.6784668083844516
aF2.1241313656177407
aF3.39820908796275
aF1.943503917326232
aF1.0630103509893865
aF2.042069912821372
aF1.4536575876984164
aF1.260649864341307
aF2.7534032570055476
aF1.1897822421530686
aF3.5744180257731526
aF2.4882943720184745
aF1.2552736899501284
aF8.042814114563095
aF3.6358464878856074
aF3.446011497777106
aF1.828460688210689
aF15.84516129250478
aF1.3491690165138395
aF1.541101546561709
aF1.5833552827307693
aF1.069300672284923
aF8.313631494091048
aF3.4226924313834837
aF10.627633154208942
aF1.6820673212043924
aF1.8214609153039067
aF1.6658177035294663
aF5.546349517238513
aF5.598291402363027
aF2.4814485268522692
aF1.5174007754278127
aF2.1198143217398733
aF1.9667273292672658
aF7.947736018111372
aF5.305150926638739
aF3.0968351233595284
aF2.278649532863471
aF9.743226814657351
aF1.516456502046478
aF1.540610022573355
aF3.29832240076632
aF2.41299392697336
aF5.129224617860703
aF2.425984870187919
aF1.331819152904902
aF1.4059901050263688
aF4.278385556570006
aF1.3129567935992354
aF8.532388745912222
aF12.846355605599754
aF5.307701404226614
aF1.9028980242064844
aF7.8290954609631305
aF4.552174447614127
aF3.6553227165171367
aF4.299586832923337
aF4.746884271178554
aF2.284123575445587
aF5.0928667197302495
aF2.5456432524786625
aF3.0734720527220882
aF1.618178889373401
aF3.038263784321581
aF3.4635454802573116
aF1.104054306696844
aF2.622496496096431
aF1.8066131732665813
aF2.5013012410248194
aF1.6063315174608437
aF1.3196141632350191
aF1.8758961003416015
aF1.3083563367045843
aF1.793871760054971
aF5.489008995140031
aF4.915392820010867
aF1.9518596712818264
aF1.3372869034509158
aF1.0166064237376105
aF4.648533874433785
aF1.0484002442315181
aF7.795543071179482
aF28.380428775369676
aF1.4528743923722447
aF3.0120514340209885
aF1.6937799771380357
aF1.2267131795035275
aF2.2198415969084877
aF10.386711860057732
aF2.5512062414557697
aF2.04665537652093
aF2.5481265906264268
aF2.273312042475715
aF1.1706023296467942
aF1.3822741003495096
aF2.3243235511039444
aF8.765763332170653
aF2.7194598157208953
aF1.0615984534805294
aF1.1237619708032887
aF2.784795673261017
aF3.3200340137077484
aF3.318249759339554
aF2.330956545553554
aF5.146954952060182
aF1.600750261342641
aF4.7735839369047905
aF1.8012952909689213
aF2.0127586144093983
aF2.6522008217205078
aF3.9782069077573006
aF8.049234485754312
aF1.1060565771645554
aF2.9438766724693712
aF7.656667353899471
aF2.4929182040702065
aF2.5065199129550537
aF11.127567581880045
aF1.5182841751899538
aF2.734079022751384
aF5.8304683551131395
aF4.28234563541679
aF2.149631790839133
aF12.79293077128403
aF2.467658104021467
aF2.3333013395250255
aF1.9122136607133013
aF4.21916481705176
aF1.7024550327089143
aF4.074050524564521
aF14.383606626069193
aF2.376687828944118
aF1.1060117546643746
aF6.390852369560326
aF6.529061953866497
aF1.4735942878047135
aF3.162132421235379
aF5.959810921439075
aF5.935203621585379
aF1.0745335677527572
aF3.9379202115340504
aF3.0411796906491912
aF13.659465312157065
aF2.1429393947693587
aF1.8374408426039137
aF2.0895760667824885
aF5.674214907584788
aF1.7921586403601075
aF2.9665023701563342
aF5.123812000227108
aF5.247235771858639
aF1.328457957925622
aF18.933178324929727
aF5.062769776858236
aF4.228028246128562
aF2.4787674030688827
aF8.48315765792898
aF4.77608660961578
aF8.863518940864987
aF10.513453626815314
aF8.751121664974107
aF1.6964237095623347
aF1.1778180975502273
aF3.471570027002824
aF3.114804118407908
aF2.962586474149941
aF1.3276833922261908
aF1.6961478489549824
aF8.701853094630653
aF4.68177189020651
aF10.53176527298412
aF13.429459503632561
aF1.512499050640515
aF8.116055018895802
aF1.758878771817629
aF3.74151771904928
aF1.8846106823399098
aF1.1871541556891607
aF8.164703620171489
aF2.23197998609214
aF3.9027806048409652
aF2.409830166454851
aF1.2789476277680072
aF5.961899756550829
aF3.3688722667507474
aF4.395608067655257
aF2.2224990949899066
aF17.935095820979424
aF3.585188962742165
aF1.7134263919811217
aF2.0923115273277637
aF13.454558212545393
aF12.418272356634622
aF2.3569390259230114
aF10.936788944316309
aF20.37440100734813
aF6.6565570807455146
aF1.9684029016096318
aF1.5705444093361607
aF3.194468390889523
aF1.7203694635926763
aF1.2233038682747106
aF1.7875971975177831
aF1.3723737831353906
aF5.860170088292118
aF14.244254245776377
aF7.728489583904724
aF2.1227616007970798
aF3.117480065629722
aF10.422757769850739
aF1.3929109688209558
aF4.994685556677225
aF1.798134140710599
aF1.2542684430289959
aF2.0272196391737247
aF9.682241533997738
aF3.098298041548724
aF1.1879226189405452
aF2.536676226643978
aF2.3435368460546853
aF2.389412075717367
aF8.587072874637537
aF2.71767998154313
aF1.6854606476530591
aF6.335122797935438
aF12.611537418065936
aF1.1378899379826457
aF2.30137940312309
aF7.888830596720896
aF2.880827883674406
aF6.304696869072322
aF1.3482537710614282
aF4.7623575115850745
aF3.5646477627282454
aF1.8532549786942436
aF2.2829195242394205
aF6.451298891855087
aF2.0860063630470163
aF5.710585664096119
aF5.80413721908168
aF6.153104182388738
aF4.545080739159908
aF7.485336845357505
aF1.4951345667010572
aF6.447168292226171
aF1.8397713718554298
aF5.086277667295478
aF1.2977276809415588
aF3.9300010972037183
aF9.281499383622549
aF3.777144839477597
aF2.7264311689571405
aF1.1925768714316265
aF5.082155847923887
aF3.701733279358689
aF2.2990747036598216
aF5.6456106960445025
aF2.303774726472024
aF2.3064554243106845
aF4.462787154546259
aF1.7425482941971806
aF2.098703694289388
aF3.215213128986462
aF5.955788324811515
aF9.135768415134818
aF1.749235377811483
aF2.470219238128481
aF2.0601266772828803
aF1.9659241464060333
aF1.3417813396246552
aF3.8102943405805707
aF10.679108410988617
aF1.9325877838229386
aF3.7773312551888814
aF11.21264988174087
aF1.303911014591394
aF2.561421417917545
aF4.151675461447437
aF1.9614199326095152
aF13.739751910276057
aF2.9095148114109786
aF1.4576996332843535
aF5.407406186845471
aF1.8529724430150734
aF3.6700198109323825
aF1.4570197019556457
aF2.591276013651275
aF1.3851974050204938
aF2.314832932277347
aF2.851916718876809
aF4.952020403988963
aF2.636405691676917
aF3.0424961899981637
aF1.951159856260326
aF3.3307922418067046
aF7.63907850558695
aF2.7978646001481815
aF1.86487020584593
aF1.4760311748236616
aF10.02044946847588
aF1.0178220248512855
aF3.27439847910361
aF6.4423636665386
aF2.595094011914222
aF8.815223550250685
aF1.7245340485863723
aF2.003623399256591
aF8.241601446781464
aF3.7191340479965036
aF5.873276243723318
aF1.469021023937367
aF2.3796519003042205
aF28.84858738324211
aF3.4184738357614632
aF1.8551015843505467
aF16.927654176264305
aF1.4686740637927078
aF1.9765488528012503
aF6.824502130817555
aF15.524486830346447
aF1.0416192117274459
aF1.4787487237914447
aF3.9210581819561567
aF1.1028185968203923
aF7.138456871569723
aF1.4028897293883615
aF1.0208867836097801
aF1.9778662074259308
aF3.257440706661347
aF3.4435999601746548
aF4.629269540217934
aF2.221736990980223
aF1.3756116838111776
aF3.4358130610110527
aF2.094119973229567
aF1.759387393264886
aF8.522823604889656
aF3.24384616928427
aF2.0264052544972193
aF3.6584783963790026
aF3.1108228601904946
aF2.327288310346824
aF1.053506924247763
aF1.4064375922755705
aF1.3140348542752012
aF1.3226769956809858
aF6.695711150728734
aF2.084219546966624
aF3.046245465418858
aF1.9155700069241623
aF9.089414376608769
aF1.9391056366635697
aF2.3675208011940936
aF2.024394506299913
aF3.0985469267532624
aF5.886932290867009
aF12.945479546288732
aF1.5431511340984534
aF16.756555981230687
aF1.8955003651830633
aF2.1443266295740435
aF6.501664246613188
aF1.3777230814418755
aF4.899470043536391
aF9.478824161148736
aF4.498857624612317
aF2.6044276296862265
aF2.899370686556227
aF1.5899689525733012
aF5.626795173192333
aF1.4231242218567077
aF3.7003487895011737
aF1.2868508912843066
aF9.012034143879351
aF1.2977030182453901
aF5.079795700198456
aF2.9133442316535887
aF1.4617962624302747
aF1.9648985141148092
aF4.336819027484649
aF1.4066248903162375
aF5.179114888904514
aF6.637303063092556
aF1.6278888497378279
aF2.8119654476731246
aF1.0967815041161317
aF5.8284653397842705
aF4.307501415136029
aF4.8560909742688265
aF3.090890725598447
aF3.429298842553691
aF3.8569483511140885
aF3.2307594505507677
aF4.676097058807633
aF4.315408590547712
aF2.0289950450902854
aF10.797475787193717
aF3.8774869330372574
aF1.338959559281617
aF2.8481288768222415
aF1.0933825016982865
aF1.6188351432356238
aF17.11626456935244
aF1.447134545560536
aF5.201998614192418
aF15.355165000089999
aF1.8691097377847203
aF1.232078337661692
aF5.036295770173747
aF9.707113994785919
aF1.7148091264467435
aF1.7378127549364668
aF1.662417374148817
aF1.9105127143639002
aF2.0238011017212276
aF1.4534518905295668
aF1.8710674925459698
aF2.8958783309959157
aF18.0547303181197
aF1.5007473193135854
aF4.275584989758765
aF1.8729303830082094
aF2.3503468406923673
aF1.349182100125617
aF3.2077569536448105
aF2.746347877132457
aF2.5762257480566313
aF1.3549573778271002
aF6.649770280615513
aF3.290523935750321
aF4.61278874746474
aF2.808857402995979
aF1.1163061272033519
aF1.88095357527709
aF1.7671847570402912
aF8.243734041929056
aF4.1581093604884956
aF2.8413432757486854
aF1.6988876079447286
aF3.069577899087194
aF1.350450692631198
aF2.22873429161045
aF2.6440756295173715
aF2.537949870412995
aF2.7550624811479554
aF1.8456061116615505
aF1.4533400692071963
aF6.9052811838205255
aF206.27189722666566
aF3.3254241592532168
aF1.9912263930869067
aF2.9878236721882585
aF6.256386012061044
aF1.3316276399636655
aF1.6160489242870972
aF2.2284811673985367
aF1.3644169909873796
aF2.348144027945518
aF9.274673208263433
aF8.996107411052366
aF2.4227917898322544
aF4.048800692728276
aF2.1294312164375264
aF2.217872601810345
aF3.6417068591329755
aF5.621589430942894
aF3.9010899199158184
aF2.6643807376808857
aF3.282578965987912
aF2.030750726234197
aF1.5335759327987846
aF1.5848319778531639
aF1.140288087397554
aF8.017849787915678
aF2.2387985858099264
aF2.719691857939332
aF5.583842691049096
aF1.141061301503066
aF8.220941455449175
aF2.2785630710122033
aF2.151629158385737
aF3.3914206595203162
aF4.1890112608351995
aF1.5733892264393208
aF12.541495275777153
aF4.819992500767504
aF2.947765522836307
aF4.890013301473596
aF1.5727776990145548
aF38.33090404967387
aF1.119284932386209
aF9.943212241983456
aF4.36501647144654
aF5.628803810741807
aF1.8572646383899598
aF19.139227444784726
aF3.3651072306321943
aF6.961208371179717
aF2.4859649155916967
aF2.9682466652411734
aF1.054598387774317
aF3.4729484717360832
aF3.6243177197100684
aF1.1073367637370626
aF4.490387031659892
aF1.839759644371848
aF4.421579823992869
aF3.4185998419126036
aF6.655433339997956
aF1.9165349150689526
aF2.21145574976057
aF4.011020378748278
aF3.921544222228374
aF5.687181807578489
aF1.198537936598938
aF6.763040855107305
aF3.040083903309659
aF2.9606422022340086
aF2.565395386581723
aF3.322537010733753
aF1.2865685765830848
aF2.358872120266941
aF1.2151015693831249
aF2.264053921631948
aF1.1941505436229642
aF1.046832871267546
aF2.1309629238292516
aF3.913091622156971
aF2.0890263305085006
aF2.472151556457917
aF4.546166741662267
aF2.5139077347982783
aF2.5762148389152184
aF1.495119416820679
aF2.1189914860474213
aF2.9348315948517243
aF1.7810289781451119
aF1.0358226574465066
aF3.4652123109806223
aF2.8864008767135023
aF5.143618525274963
aF2.1056610394796134
aF29.982015662702278
aF1.3907212228163777
aF1.4973787132915612
aF6.504403155156355
aF5.870428759957245
aF12.878556436443416
aF3.6590425453527295
aF5.797444178156472
aF1.567833780556885
aF3.3853310442577085
aF2.443514646242681
aF14.468512393616873
aF3.034340293589727
aF2.158043592990811
aF1.84324956442267
aF1.7624761012099117
aF3.908375814762482
aF3.0566590049516784
aF1.4131960152662435
aF11.790005888965593
aF2.1973405491018707
aF6.845206323776225
aF5.06155764850912
aF1.1761935733897035
aF4.932008158056039
aF4.7295278932879325
aF2.5593847602388458
aF10.530949157093172
aF15.16166433999343
aF2.4844545823758595
aF16.674858445694266
aF1.8734785572546069
aF2.550466921970939
aF10.09883828623393
aF3.0643484578840487
aF4.804931246613306
a.