(lp0
F4.080400611543846
aF1.6709959162284505
aF1.9797294155972127
aF1.7779809474704946
aF2.217162496755016
aF1.969323878723413
aF3.043250211510675
aF7.06446415834616
aF6.687718545705953
aF3.4626165329450784
aF3.2464288539283115
aF12.386072865008254
aF4.454156299153066
aF1.7488966059413056
aF2.91841887358642
aF2.554983075525046
aF1.4239131984874738
aF1.520224305042628
aF9.555847065137275
aF4.0090168837159
aF4.058160926299781
aF13.633529409510345
aF2.1752145513189203
aF1.1332060497291587
aF5.193329249761542
aF4.029639743988379
aF1.2368881569946428
aF1.41665827736942
aF1.0656927302396526
aF2.1601630471474422
aF1.150658268958403
aF4.269702469249276
aF4.381015866313192
aF1.3614436658850857
aF2.1503276831515743
aF2.8582354002419303
aF2.2912912169044315
aF2.2433934165477547
aF1.1508985118150479
aF2.8732448081423168
aF4.947083990864405
aF1.7042222486468492
aF1.9339675829131826
aF1.3254980389068438
aF5.698119310514191
aF1.4633142941744952
aF7.685648024789675
aF1.7328289203845206
aF2.382598434897996
aF1.546702210588185
aF1.1433215169622128
aF2.1408793456753807
aF1.2997234169127627
aF1.2381103289139288
aF3.0578197345771185
aF1.8002527575998386
aF1.0970239624330478
aF2.153268122740169
aF2.496194536739074
aF3.211426056294802
aF1.850066142559994
aF16.317954486434495
aF2.045163188330501
aF4.680020645015315
aF3.130466631872342
aF4.0106486631693254
aF2.4652475998245134
aF5.3778873127558136
aF1.1592429210307655
aF1.469503538950279
aF2.1701307254666617
aF3.2648890783983937
aF2.0816169712032964
aF3.2808524603120115
aF2.1696804073180336
aF2.2805852541906253
aF4.019342286759153
aF4.276169630179423
aF3.620817037301457
aF1.5816762673286355
aF1.0289303238151604
aF8.442652907090544
aF3.8662035791150617
aF1.5223753414875103
aF5.100900812677429
aF1.4016444812974231
aF4.075910425602363
aF3.073022059168882
aF1.739286393910077
aF2.4134509238785355
aF2.69185108381069
aF3.1209433697074553
aF1.9340210110591725
aF12.575755385779738
aF7.413520418302816
aF1.8774376415876666
aF4.95209556554767
aF2.215321717469691
aF3.099008257679118
aF1.1742415104903232
aF1.5369189376303891
aF2.8759316062472764
aF1.5618474300839174
aF1.6100470948303667
aF5.844989906871314
aF2.6732982809759087
aF2.2718671220501863
aF1.781676362042581
aF2.04736773942455
aF2.22585274668999
aF1.179571982978817
aF1.297398406724644
aF4.942065381654235
aF1.2946972126665344
aF1.4951345667010572
aF1.7513764154193414
aF1.3185395332448826
aF2.2875750470688594
aF6.261683368138481
aF8.274748318069092
aF1.243761207912604
aF2.7010693796800123
aF1.4701947926330015
aF7.041108490719618
aF1.1335492849260607
aF8.776905061182283
aF4.558489579835991
aF3.381753563319538
aF6.586856335015463
aF11.770811189159955
aF1.4309946236360802
aF7.767783129588139
aF3.921213622513967
aF1.5645197987550699
aF5.11656824725656
aF9.247162002951152
aF3.2981873207955172
aF7.216532327466087
aF6.401246707606482
aF6.877979866595975
aF2.1172915353341533
aF7.9453591605142755
aF2.299938079184733
aF17.242878463023604
aF2.679841827777556
aF1.837990334213942
aF2.7069777639304364
aF9.970486641577924
aF9.6662655113459
aF1.1338534492564298
aF5.910427306274136
aF1.6563912269902297
aF1.897808108103295
aF3.7700566705611007
aF2.5720844457754954
aF1.7000533338915056
aF6.273072127201709
aF3.2450749166797994
aF1.987332130791275
aF1.0597935786659798
aF16.046597045741
aF7.737293870674648
aF1.5030234483914364
aF4.13917105169311
aF1.7027034319508176
aF4.115473163551878
aF1.1097463801754868
aF7.079327418104892
aF4.313673562970078
aF1.1862213374492185
aF6.334370324482911
aF2.727875668315428
aF3.123001983187428
aF3.1192062360861197
aF1.3940318358924828
aF4.30260547440347
aF1.0248319963866985
aF2.0053671879781545
aF2.80529383123576
aF2.5647309547492707
aF3.883291058627341
aF3.6642943003624766
aF5.602575942434976
aF7.631418009174509
aF13.875564091866979
aF3.365960387713471
aF1.2452200618076388
aF20.964362872285857
aF7.075208210056828
aF6.212670784104141
aF2.0127586144093983
aF2.949681913239078
aF1.3881437477019516
aF3.5028420536621376
aF2.071128387302915
aF1.753724674843166
aF4.543858079779581
aF4.439313705024496
aF2.868445930854542
aF1.8529724430150734
aF2.006785078844022
aF3.7452825883703262
aF1.9942291656713678
aF2.5849959738208494
aF2.430067970742949
aF1.6385098600793118
aF12.100998161930487
aF3.544896435070901
aF1.8244894565198693
aF6.0761400921896325
aF1.5924170918110745
aF1.3820753308908627
aF1.2041357710922616
aF1.3316276399636655
aF1.3468695257362253
aF1.6247988028268747
aF1.108799540214493
aF5.778631095305817
aF1.6435698891247958
aF1.4880664680192708
aF3.0744218394195153
aF2.3471444640649075
aF9.432279205163969
aF7.89540682208722
aF4.281834123501622
aF1.3967016370545444
aF5.295329155634481
aF1.8572646383899598
aF4.203678295154596
aF1.321538847261514
aF1.365023437227324
aF6.105673029940129
aF1.7343493034069446
aF1.2470934765150086
aF4.168182599865242
aF2.3581222939538753
aF5.365394011457871
aF1.8142474448746984
aF1.1806519576843337
aF2.193964841992888
aF1.311871196001329
aF16.097506324422756
aF1.7990414712593212
aF2.411628859281631
aF1.0162238878791392
aF1.3912356372620691
aF11.290818967150377
aF1.6897626332162423
aF1.1084480950603877
aF4.583981830623565
aF6.358539711215612
aF2.494679482160153
aF1.495854297248049
aF5.034378750176034
aF2.627065945233505
aF1.4952905212063157
aF4.777049638410829
aF14.254230415256602
aF2.7469791874440177
aF1.0203749074141157
aF6.58729446627585
aF2.632508974848181
aF2.543214173941093
aF1.1550372080877527
aF4.919345517904261
aF11.650985367740514
aF5.9842859422388095
aF1.7966107824480442
aF22.87074094090268
aF11.932670884145809
aF3.6582531498968605
aF7.399906929547261
aF1.3269941147319038
aF2.713860449964028
aF9.450182131739545
aF3.0390910297758653
aF3.4685324064120624
aF1.8850964610115304
aF2.3224343329554658
aF3.5100088007813306
aF2.965026078828407
aF5.306633468710526
aF3.17044361485767
aF3.6388785737032703
aF6.188409637269655
aF2.0615578462592334
aF1.052724501553806
aF5.506321928684491
aF3.3025363185760477
aF1.3390547995127897
aF1.8478263580841972
aF3.261721688446296
aF2.146413130765148
aF11.273290929154115
aF1.2583775346965038
aF8.645958830446
aF2.52438664353471
aF2.4754802579368738
aF7.4133397508137335
aF6.809470681740116
aF4.895103148742291
aF1.5307162250541604
aF1.87423888319775
aF1.260054815162094
aF3.4964800012180235
aF1.5691086711059337
aF2.0412658069827496
aF1.1611653677166933
aF5.890636501733296
aF1.6706278061516684
aF1.0890736264046226
aF3.4011058842158017
aF1.6566255510281578
aF3.333087970257465
aF6.108810424310822
aF1.7070464454291414
aF17.725600660070764
aF1.90374038973465
aF2.5233412454987727
aF5.195419692895769
aF9.853374201842989
aF2.0660617108395893
aF9.756727988290056
aF4.706571803656412
aF1.1651443706348927
aF1.9749944201244993
aF1.784772128429277
aF1.3741798088648207
aF4.421198072694615
aF1.7252204928527706
aF1.9749580260699313
aF6.612349212135209
aF1.251336036602718
aF7.1113295022668686
aF6.144794460928438
aF4.143079369074084
aF2.3842688182480254
aF1.4576996332843535
aF7.331087197679719
aF1.3348627188437963
aF2.499183867806133
aF1.7137670678463481
aF4.810040763730851
aF5.652920132260084
aF1.694944161165644
aF4.804150838104854
aF1.4817783489638923
aF2.02666942417784
aF1.6539142490023697
aF1.4884131928932707
aF3.0782490157546616
aF6.397955943784676
aF1.702392132648087
aF2.9536350568764482
aF6.44598964687646
aF2.4125247373441217
aF1.9071763523775869
aF9.505071795410213
aF4.054699332645356
aF2.4650880625824887
aF31.92574525960995
aF2.8635904513232644
aF1.560538633499244
aF2.7430472153519063
aF2.9298084895166383
aF1.046948067960614
aF1.4049111976644784
aF3.8899092211704223
aF1.4203101849267379
aF1.287771898491837
aF3.914094267835778
aF2.409395780762391
aF7.6407004523686926
aF4.7290983014042665
aF1.236620190682612
aF3.1175411896727536
aF1.7118283821315554
aF14.250464076731669
aF8.510191009150638
aF1.7118213233034019
aF6.649619692880152
aF2.910994854431613
aF1.9986390077077971
aF2.39905694517287
aF2.229211563462669
aF8.21374026434525
aF3.285565180757037
aF1.5983607254430985
aF3.6604634395765805
aF1.6226534746303827
aF7.508261004274458
aF2.135744505914245
aF2.2842121897831733
aF3.2857349312912625
aF1.7078566167108418
aF4.130947045917368
aF9.008034790879577
aF1.9520696503069244
aF1.0745335677527572
aF10.484897202569835
aF15.84232876378031
aF3.2718867617344123
aF9.036091224089411
aF1.9535127414950364
aF10.652717810907545
aF1.2875147917321552
aF23.238766622434436
aF2.1983212778336885
aF1.7324165948685135
aF3.2550263389829093
aF1.2586650271807933
aF4.684299152779399
aF3.601041451104173
aF1.930926148842707
aF3.1463518676106657
aF2.0492053838582067
aF6.025759827122999
aF8.147312810885948
aF1.5581372681366705
aF1.5323046474532191
aF1.9518596712818264
aF1.3418097742894253
aF3.3651072306321943
aF2.73658662225948
aF7.142063227467739
aF2.061077503268817
aF1.8473096197311885
aF3.414132124877168
aF5.2646030798335355
aF2.559402554742137
aF3.568298615609718
aF1.9308237067047531
aF6.887283569384046
aF1.4618279362847058
aF3.729380646556552
aF8.413004833639036
aF1.4883096507975513
aF2.2007040365563952
aF2.6261294774575337
aF12.327647139814005
aF1.9655277251221488
aF9.75450375511236
aF1.0962244128090681
aF4.051064898271924
aF1.6655405443145255
aF2.5728397751450016
aF1.543764327324611
aF1.5847874455637245
aF1.2592304671815882
aF10.702840511621499
aF4.4536946784734575
aF14.583320400545105
aF18.5654570009353
aF3.9439642550412706
aF1.9387339027310033
aF2.022534011392525
aF1.3772237487951624
aF2.4079212700734463
aF1.411746912407522
aF8.284487568260614
aF2.6343970752027284
aF4.28627077881833
aF2.086233070253749
aF1.2824047904812879
aF2.1725897566670573
aF2.0336573276154737
aF1.9918205540268323
aF2.2556288329301903
aF4.806212212572186
aF4.987381401966371
aF2.217540773461681
aF9.893555444623464
aF1.2574517682761923
aF11.389964746334524
aF1.5395071392746649
aF8.137247075065448
aF2.9826358148483334
aF1.1947086219211995
aF4.377211182277122
aF1.8948001898698932
aF2.7886107480313624
aF1.8437348015078936
aF6.079231685253851
aF3.020650798455827
aF9.255360715148814
aF3.833674784177838
aF2.1811582264219394
aF6.589885319151071
aF9.120580725567292
aF2.8979646748803782
aF5.534654534012393
aF6.111294325872956
aF4.420353548806597
aF1.8899945919778638
aF4.428844803048395
aF5.140448315289935
aF1.6176455421647498
aF2.847205261368802
aF5.208372683222427
aF5.598291402363027
aF3.0891288987896255
aF8.384548904793744
aF14.428201638442767
aF1.1944798804969423
aF7.175742953518584
aF2.424181537372283
aF1.145070691272887
aF4.619509236994305
aF16.817688490121395
aF6.721067308226052
aF7.082584367345434
aF3.8359821790195032
aF4.152666653204919
aF10.73693999848726
aF4.527961957867918
aF3.1968878252934556
aF5.282759906923565
aF4.228028246128562
aF1.3269974279096681
aF1.2880892517304148
aF9.780212825979987
aF1.7851504521357784
aF1.7464981514307731
aF6.4291873182405865
aF1.4686713830483527
aF2.490107292693574
aF4.040441265890025
aF2.694735113689483
aF2.2760066902826477
aF8.079746668491147
aF1.5818973781243506
aF1.9240967356230556
aF1.194966336337915
aF1.383721641344724
aF2.745974013716142
aF1.816369251022801
aF2.8133733816981312
aF1.1026324864408708
aF1.8237153013437302
aF1.7613422154602596
aF2.426777270938023
aF9.272774132101475
aF20.210526071147672
aF2.343383753530596
aF2.331043076234928
aF3.3906037398371836
aF1.8085766472918803
aF4.708794301205028
aF3.0278952386574387
aF2.7253629531930215
aF2.2985632364627167
aF2.4471113049217044
aF6.7375722050072815
aF1.159624259666489
aF12.281444749385761
aF2.1102723363185474
aF2.1278203660744617
aF8.48558676666457
aF13.583956402704576
aF1.244448653074818
aF7.826269871666157
aF3.660477110757938
aF5.300799143476531
aF2.370131266624892
aF13.203978697196927
aF1.6002876800707095
aF9.920735105361283
aF3.677384789589037
aF3.27345407352855
aF1.9668314892103205
aF1.3619662503240868
aF5.7849840714186325
aF2.3866284091747976
aF2.5996682302665293
aF5.54637275068319
aF4.2492670480381785
aF2.7546618907815485
aF4.073849348712213
aF1.968768796545311
aF2.8267100391969677
aF3.7523277268024384
aF3.752946756666425
aF1.3202100023172552
aF4.613137289429338
aF3.219157532479717
aF4.003107534040301
aF10.988877557438117
aF2.8020548137568246
aF2.5414472031959656
aF8.88288208976146
aF2.928871261020183
aF10.477185170605347
aF2.954423302658865
aF3.040083903309659
aF1.9468781106762296
aF1.0846108568859776
aF3.549967791191054
aF12.253441210888784
aF10.731240699582317
aF1.2855326053724454
aF1.3927581957492285
aF5.304586901502254
aF1.785074233366792
aF1.5660527625389644
aF1.0373033613356992
aF2.857294360656404
aF1.2573672207969784
aF1.387804781719801
aF2.3777787450216086
aF3.8669043428071825
aF17.465294717110766
aF1.8850645171542513
aF2.794964911230603
aF1.6181516466870043
aF1.1095884815503902
aF8.39845950414073
aF2.7229672790488526
aF29.22083314111497
aF1.4958879972414796
aF2.4565585624434636
aF7.904436570072665
aF3.7355658705188803
aF4.349430877778319
aF2.4619120629647226
aF13.963668606054508
aF1.2573743206824877
aF5.539870728142964
aF2.001194555345749
aF1.8068618015646143
aF7.439300346935265
aF2.385248548904982
aF2.2872233296515385
aF4.341561621708417
aF2.2657168965234944
aF1.1365585570098085
aF2.0533119854843664
aF1.9341568187084888
aF1.5750437813463403
aF1.3941079107526564
aF6.5241586609650675
aF1.0483358730249683
aF5.660699751932967
aF2.567401322063949
aF8.94002437891116
aF1.6701350533452908
aF1.3247260700396584
aF2.8232004645012343
aF2.237565405353211
aF6.1816542199894124
aF3.047840710778452
aF6.921440284722512
aF7.442716674819609
aF3.373581624453445
aF6.497799798761885
aF5.917701804494839
aF6.826282059940057
aF3.187696751680643
aF2.248773031229951
aF1.740048294401012
aF2.2076024697741192
aF1.8735591397945384
aF1.1152097668932144
aF5.939051472962906
aF3.929127955115827
aF3.5028992592293764
aF2.6932609599550856
aF6.40915454810704
aF2.761837462253469
aF5.213580382852651
aF1.6836814619643512
aF4.435451742458498
aF1.676773794356304
aF14.059919454828718
aF2.780814664360194
aF2.240234241460823
aF14.564938356019164
aF4.294488428557683
aF4.384838410026998
aF9.231159789932336
aF2.8791855724458517
aF1.3667944340050262
aF2.8328790175246743
aF3.03532402888005
aF1.9392583785033022
aF4.0763516565288835
aF2.751406735472828
aF4.300203489432884
aF3.725916593689993
aF1.0529983909301723
aF3.37198883134282
aF4.431302274015304
aF1.0417172624939228
aF12.205191910110882
aF1.2652219767134039
aF3.319917106375292
aF4.221411035001257
aF1.8767813181432935
aF1.072468606378037
aF1.326642130706967
aF2.554879701421926
aF4.919067616038792
aF8.593769465560126
aF3.5955379966643086
aF1.9473895173297802
aF3.520826947516631
aF2.9773422653376933
aF13.529574040335328
aF6.346017081035698
aF5.8283582152160225
aF1.1871172324438823
aF6.609061112792179
aF6.002731406288402
aF1.834674069492254
aF2.254910796671732
aF1.6363989712363487
aF3.0357320951654234
aF2.9689264746609956
aF18.072690356416526
aF1.5005800192421725
aF1.731380782968983
aF39.432981964813614
aF1.3780357163083834
aF3.42619464170409
aF1.512499050640515
aF2.742822919748731
aF1.4168373529956861
aF1.4017371078077823
aF2.6736313037480364
aF3.389233601170174
aF5.461067865537294
aF5.071649248154428
aF5.105540380249768
aF1.3797207157518478
aF9.452080340735646
aF2.39512145170125
aF3.445975969174435
aF1.4511334423626694
aF3.3380471868147765
aF5.414502088209881
aF7.790710057082846
aF1.7465232339510464
aF8.333564314412623
aF1.6532829619743248
aF21.91141533946007
aF17.836483179779226
aF3.8437209400609533
aF3.444571500714786
aF5.935767621650889
aF1.5530859217715258
aF1.985996512585466
aF9.241667639828991
aF5.466454152972465
aF3.6241746963740487
aF1.2996651300437616
aF7.704164369032012
aF6.9517637776090995
aF12.179816952432153
aF2.3394965397453915
aF9.014531044957034
aF4.84874380605495
aF2.517749804331728
aF5.485072432790916
aF3.125490934770147
aF1.516413471205619
aF1.4460027268686104
aF5.188623323780441
aF5.593488044097024
aF4.605571901389313
aF1.334897621572021
aF9.749727620534598
aF1.452709343351668
aF6.907903259307257
aF2.438961398920018
aF3.2349906084507207
aF2.5523226796527387
aF1.5402075807792805
aF2.5054891933191583
aF19.374714060914382
aF2.537439300347554
aF1.8630672444838172
aF2.7071489542743277
aF5.2644100756409085
aF3.598564139731562
aF1.714069430767293
aF9.657983184584369
aF2.660525974840789
aF3.2677683772331343
aF2.688214930542353
aF2.5571208876773732
aF1.0895789679793595
aF1.7048049944435941
aF5.152022658716018
aF8.846417269831097
aF5.737594993715173
aF9.443643188017882
aF4.022243482115621
aF11.17114839069062
aF2.336684424848112
aF16.744513734906775
aF6.198446551068518
aF2.6576698356161144
aF2.3869685804575496
aF1.865540177668684
aF4.859390900032223
aF15.9857852342209
aF2.1279619131809
aF2.7364920261376118
aF25.37316434811584
aF4.647251216802661
aF5.316700410863998
aF2.545543946972408
aF9.322402966522768
aF1.5263386801911372
aF4.039619654087988
aF2.1749187666022594
aF1.1671557210554484
aF1.3905670043461
aF1.7911267484176232
aF2.4325513066839846
aF1.4787482537781251
aF2.189395199637676
aF2.697827970929551
aF1.732522659657657
aF8.910256846659927
aF4.592861547386135
aF6.691151100366339
aF9.80481597959729
aF5.414787148440764
aF1.4229837406896026
aF2.7724758695019336
aF2.498113573751882
aF3.6407742020582767
aF53.50978010263048
aF1.0585907632766656
aF3.316825673968292
aF6.301138217596451
aF1.388774172008771
aF13.177466315163343
aF1.507473449390309
aF1.6400276492726675
aF4.163930251777555
aF1.4386130213296517
aF22.645593198606708
aF1.2627698116170596
aF26.774947328150517
aF7.548427362600828
aF1.3946042218431798
aF2.4349706426902054
aF1.234488248522163
aF1.52248329013817
aF5.732389828706662
aF3.4970972884537246
aF3.832138572638738
aF5.365154635162693
aF1.6984914988092612
aF1.4754733149647459
aF3.099189728289918
aF4.136891346727694
aF20.431490558200675
aF1.5224460110074542
aF8.410805717459317
aF4.812604205940388
aF3.708499207529629
aF2.0674872167887295
aF3.0176692033656676
aF2.6842134215003264
aF3.800020187100922
aF1.5167144887004473
aF3.407395611092322
aF2.006122882762828
aF4.153849895499093
aF2.8849800592805748
aF14.699231751741241
aF1.7091188246320572
aF3.2425852152818986
aF6.221115668051838
aF10.21727060186941
aF13.839491251817444
aF12.628369328305155
aF4.069979279802747
aF4.148246931507019
aF2.001096209070552
aF2.444127404446571
aF5.114983806421435
aF1.6024651787695912
aF1.2259964949787623
aF4.046364317883921
aF4.155702631809027
aF1.1972941774557577
aF4.826351890626335
aF2.833432418293331
aF1.316071879646652
aF1.5548378753596441
aF1.590521126385299
aF2.3536775972618473
aF4.5269858704306785
aF2.182318952426661
aF1.6252098653735987
aF1.5899101416094361
aF1.4707385868103275
aF3.6175761834206965
aF3.5143142798729454
aF22.928281776568635
aF19.613761874472083
aF2.872596250739862
aF2.8407906106137193
aF1.3524145119173823
aF9.133469580498232
aF3.836371053420725
aF2.6657367519329576
aF3.79770455527045
aF12.024886488083643
aF6.5350977305888795
aF7.696037713183466
aF4.977232378560711
aF7.963604717180046
aF23.86657701915789
aF1.7805125905002523
aF11.70622037491842
aF1.9365663615813282
aF1.7839840711365154
aF4.7688572630123724
aF1.0802949055681939
aF1.8840794833719725
aF2.775264325959003
aF1.4551378091249252
aF5.157903312250424
aF2.883142616491569
aF2.594654042124126
aF1.3208596899818164
aF1.1631711569788348
aF1.9611640413669496
aF1.1328743662190075
aF1.7293935976650434
aF5.967430578242059
aF4.351930335620309
aF4.536064985593605
aF1.8822685793661376
aF1.400773064476694
aF7.74106897409285
aF6.245494514988185
aF3.139050525697893
aF1.6991157094576972
aF2.6574263860285643
aF4.313961755577391
aF3.6827010608854946
aF7.9621188948915425
aF2.896611629454736
aF7.035867078208966
aF1.8008042375968007
aF4.420183205877467
aF9.567277370889235
aF1.1860768912797897
aF6.154436938990093
aF2.9917335954681263
aF4.587761918869699
aF14.75967639017315
aF1.3335118228449696
aF1.800346461153112
aF2.877631375006119
aF1.6964237095623347
aF1.3420104207735197
aF1.5957157206091632
aF2.441298820133774
aF12.228780957285482
aF2.6493883471242157
aF1.334720783351402
aF8.741551634858046
aF3.9177625061195496
aF1.0387154073540938
aF4.294667069841228
aF38.71232445766794
aF1.5484676257158765
aF11.814810216365442
aF1.90569053380802
aF2.001337858819935
aF3.4593825346004965
aF2.6775058486655077
aF1.943052333305655
aF11.273265784283359
aF4.585064877941084
aF1.661286085086154
aF1.6595108260886215
aF3.3194231032153567
aF3.908020251397668
aF5.1531845298170635
aF12.374062600175584
aF1.029306418173021
aF3.925178432924941
aF7.02454404404929
aF1.837925182547956
aF1.5238346029210394
aF1.245462934024838
aF4.706812721822396
aF8.113387122781766
aF4.009793754573189
aF1.7674088001147708
aF1.5768695407930635
aF1.858158509957387
aF5.328305797612568
aF1.1161198032167947
aF1.6404383163868281
aF1.1924202530608488
aF4.98570227548333
aF1.322158729682786
aF1.4975109130879118
aF2.642703935329798
aF4.686384980089874
aF6.050913068990894
aF2.34560137102198
aF3.160326334348256
aF1.6739214198357306
aF6.151723996805529
aF4.026238767220319
aF1.5703418772308466
aF2.3805727490064905
aF3.131639363610588
aF2.616195029600916
aF4.9590290432517286
aF1.6344351864056694
aF3.25047470346221
aF9.563616350437174
aF1.7694673109048624
aF4.389057270510597
aF9.34991616052819
aF4.977038512111041
aF2.548211265233095
aF4.6511474146307865
aF4.9212076847315815
aF12.799242772178523
aF3.3563035128820133
aF4.552821251241717
aF4.9176208724475154
aF4.620271708697031
aF2.802082458257606
aF4.712921110360719
aF1.9956627061616485
aF11.424654671209588
aF1.613039205927438
aF1.199210379129508
aF1.1542180619900257
aF1.3258625951330765
aF9.526374096526299
aF1.570111814733149
aF1.382213759700054
aF14.385443260106229
aF2.1060191299360556
aF1.2688495212354949
aF1.1834362551069224
aF5.488934898870276
aF4.760172364414086
aF4.1972569376040205
aF4.1554085839164765
aF5.360014270122402
aF3.69480036860316
aF4.602931660883173
aF2.201380404109611
aF1.7183297033163678
aF14.399072651755636
aF1.5965969420721144
aF1.5340446877772433
aF5.0599013399391
aF1.2895744556832172
aF1.6473282211657705
aF1.8054524441581676
aF2.4882943720184745
aF1.9126043185418735
aF5.103650904863456
aF5.651721125959631
aF2.4608223430572034
aF3.418749030809494
aF7.072026790433697
aF2.9234672799119297
aF2.1255706486978685
aF9.821390115685784
aF1.0683926051272552
aF4.78316296485979
aF1.1579690532871012
aF1.0968352094911415
aF4.280680732214588
aF1.356835352867067
aF14.938375353165018
aF1.5484675234398833
aF1.2139627547808896
aF1.220424384766603
aF7.33434327711217
aF5.850581222088758
aF1.2283912940934971
aF6.031690721539076
aF2.26302310292897
aF3.908460895335501
aF3.881763042189676
aF7.812764829355045
aF3.695587323053476
aF1.2448756538975074
aF1.4219335167520704
aF1.363869566312706
aF1.2552864343981565
aF1.5813212499408353
aF3.035720226841191
aF3.4372503871822158
aF6.184951588283401
aF2.333908457691075
aF2.522419064413101
aF1.29397230096251
aF1.1816619468137832
aF4.113141120202119
aF1.332171718548981
aF1.3297227401595013
aF6.213530940256823
aF1.8220349644491698
aF4.024850820433469
aF3.603541274594027
aF2.608148598108471
aF3.818077692115275
aF2.4327039162565494
aF1.715681740315676
aF3.7569762230729964
aF4.861741074882225
aF1.2695421848630635
aF21.45493107581274
aF5.392574489192387
aF2.0035423685133726
aF3.3632501576438916
aF1.9958023988438385
aF2.7661423795946836
aF1.1481558488671681
aF7.5175882456141165
aF1.8827797123428793
aF5.2524383247452615
aF6.087828715709522
aF2.2755587291669594
aF6.077596176314975
aF3.516036117196418
aF11.83603414252714
aF2.9972111156719032
aF1.2003020714517407
aF1.3530018714533774
aF4.915505132348774
aF2.275517361919194
aF8.126380666399115
aF1.4664278886870679
aF1.473646714012314
aF3.6407261207659167
aF8.375013979834593
aF2.599454946761445
aF1.5008974655322278
aF21.55750084660547
aF5.140437565791714
aF1.592156662549896
aF4.078128947708116
aF1.2662285707521548
aF17.29797832480245
aF5.579915226167709
aF2.3996089587565996
aF1.2101954621393203
aF1.0910073647194343
aF5.115996818325373
aF3.173968222093594
aF1.2828233620015288
aF3.275342375083445
aF3.0396559576490536
aF5.848281154260987
aF12.105301571508074
aF2.1740837033284084
aF2.434216332458072
aF22.210508866315568
aF3.5613024331507375
aF1.3149265961857806
aF2.2929781531931352
aF4.699726013683765
aF1.0535468961657315
aF1.8740276369769173
aF2.531928904330718
aF6.306502007988416
aF1.8671830927656061
aF3.268291270963265
aF8.642793506929028
aF15.334159584494051
aF2.3734103145839582
aF3.0463990445946223
aF4.485183889685692
aF1.2081553251842947
aF2.034457930816854
aF8.799641205233351
aF1.6663828758949526
aF1.2599756033420821
aF1.1988203159623612
aF4.322551387412767
aF3.2627330409282824
aF1.7112629796929368
aF2.6626155062676964
aF2.402260339589116
aF1.658806468868104
aF1.1251094083904098
aF1.4571562757437553
aF2.4891928989872363
aF1.5503456952982344
aF5.02304556608675
aF6.3233346281804685
aF2.441071504601384
aF10.507945510578663
aF8.525147252988951
aF3.7811947204786347
aF1.097634583657379
aF2.2037650010473158
aF1.6579436812730428
aF10.594915612501092
aF2.7865121688212238
aF1.5750064763046931
aF3.5454640455416935
aF1.3581506433320991
aF8.103925963187988
aF1.1654034327234428
aF13.726361691189677
aF1.466072053944981
aF2.6202812958721937
aF8.670604959303054
aF4.772942799391053
aF1.9974608888077199
aF7.237111707600491
aF8.414984358187688
aF1.88142444478863
aF1.25037041908332
aF1.3711449354473157
aF1.1270862710978737
aF1.6236163613001686
aF6.0165332712809665
aF1.1660934003849783
aF2.382469724933943
aF1.5671955505142978
aF1.892157161904341
aF1.2280048873192986
aF4.420702512340803
aF1.554378575474786
aF4.72238355345764
aF3.6666530245306297
aF2.0557817207563174
aF3.4431037448849713
aF8.11532626085319
aF1.421963401676016
aF40.63359649408133
aF7.108659253219103
aF5.526758093730085
aF8.037960353996695
aF4.352248878450372
aF1.7229308606623566
aF1.9983954307207668
aF2.520738034558259
aF13.58920944678883
aF1.4710807492915816
aF2.96134064036074
aF1.3584608823597537
aF5.610933739850979
aF9.47950954695822
aF2.860625719559126
aF1.4871653838086627
aF2.2275424939446595
aF3.6779976100400336
aF2.1854300631057475
aF2.346520115882367
aF3.8628869158123744
aF2.239183709166194
aF1.2726658243692308
aF4.9773910478004515
aF12.355234195733852
aF3.6802145234730643
aF2.995730970111198
aF1.1982886940611897
aF10.029097948419357
aF10.346085523649514
aF10.615430526186353
aF1.5775476034096585
aF1.2358894708788615
aF3.174190016066816
aF3.709699376491494
aF5.276423327584745
aF6.990729310153957
aF1.1125679283450673
aF1.5996674399712318
aF2.5676935770848712
aF3.5406031118515786
aF1.3344583916200385
aF10.992839563045408
aF1.571760566490743
aF2.8570150431463377
aF4.7224361518098625
aF8.472042541138402
aF9.204162715015984
aF1.1941342813091462
aF4.49212231832965
aF1.2039919922953517
aF1.5588934891704123
aF2.977070741363302
aF2.1805956027197975
aF3.9183028064811283
aF4.475335705088843
aF5.336669206454364
aF2.2292482593968255
aF5.9982538118758795
aF1.541198954016361
aF6.909805478431318
aF1.683664274179898
aF3.2967896920277893
aF7.561125754415982
aF3.243496717903198
aF3.995746522359259
aF4.72003431054395
aF1.426343161504806
aF2.411056809427635
aF1.0657595105778634
aF5.348301172899942
aF14.287977955711398
aF4.894808144049897
aF1.5763817567920038
aF6.459171124573629
aF3.025393569027765
aF9.461048044638707
aF3.4032809787202365
aF7.837258019553349
aF1.5475622452377957
aF6.692358695341816
aF3.6712889458432607
aF3.3641809106320815
aF1.7050999829756563
aF2.2570629416297336
aF1.29717627295406
aF2.0183722380476676
aF5.596632531946878
aF1.8535195725485827
aF1.5893575119019883
aF1.9835311655640975
aF23.7395338188743
aF1.588544957659166
aF2.8686568561538723
aF3.6552120657967744
aF1.8737578959892323
aF3.1848740607714627
aF4.812555429264758
aF1.0139525758570471
aF5.853983094979504
aF2.845870293331464
aF1.534506678456385
aF1.6736276790545064
aF1.8618830244595839
aF5.129648554507187
aF2.7093144967946827
aF7.665166268297721
aF1.6397029147014919
aF3.161425423568537
aF2.4542049934880463
aF4.210318068115765
aF1.3868044207950099
aF2.228439175097463
aF1.7147390447327493
aF8.262610964897307
aF8.087752167496213
aF1.1708252318599313
aF13.789246212163484
aF5.68159077032174
aF6.2008496464478
aF2.245779752742182
aF1.3028745792294236
aF10.168517739862025
aF9.138326844636753
aF2.814603138053253
aF2.753952662821535
aF4.490204167499457
aF2.195315831566856
aF5.494149707798756
aF4.04673998085505
aF1.7218123149351967
aF2.967694794988211
aF1.048158689273493
aF1.3732861059920705
aF1.5659512091869618
aF3.2277249048723777
aF3.9415684102896673
aF1.5488903539861414
aF4.2112761508668966
aF2.493348052954814
aF1.8780649145684851
aF1.6265850039980445
aF1.51038213835606
aF2.9401456988051162
aF1.8840587985369026
aF13.336552746788751
aF2.476920222238945
aF1.5393131458871485
aF2.2393712187040387
aF19.75889709775353
aF3.580029202353839
aF2.752526435168776
aF7.011610975667417
aF1.6766815397657777
aF3.0934198547052536
aF2.348144027945518
aF2.4079536862544324
aF2.434624790706714
aF4.706860850353602
aF3.053415114496542
aF3.5647750492693646
aF1.8972618838709598
aF2.7470470285219455
aF1.9353117601196492
aF2.0399864847826117
aF1.161546900716109
aF1.0801104250671503
aF4.463180202085238
aF1.1377137734924907
aF1.4888232368138565
aF12.231710529014515
aF3.358213189213898
aF3.4522814120700267
aF1.5287275730081271
aF3.884427260772718
aF1.7482780648867233
aF13.459792676307602
aF1.1908169730803941
aF1.652932513217662
aF1.4878075421753687
aF2.073661974957316
aF1.2580975997311425
aF1.5815953431743237
aF1.329640371805757
aF2.217188247887772
aF6.3801622890054
aF2.7043598835650244
aF11.118227718787484
aF2.6714374007900634
aF10.8702737264928
aF6.044135540304686
aF13.054552957720734
aF4.9307240229298115
aF7.187833432753833
aF6.040579335187605
aF6.26835811234791
aF8.517898808871408
aF1.4029226415666927
aF1.597120138311733
aF1.3709711370349262
aF1.1562933536065156
aF1.815744834816803
aF1.5537983448156591
aF9.349237813045674
aF1.2007715577246076
aF4.401503590524276
aF3.6190467405787143
aF4.652237117012201
aF6.904040539036445
aF11.242487804749631
aF6.287388430963067
aF8.1704283256821
aF1.7124259836814697
aF24.32220098596727
aF2.0874093879490347
aF1.4274885060793934
aF1.302678065137495
aF2.3895449807400087
aF28.766696521379234
aF2.875060393151327
aF1.7367051356928878
aF1.5835486488973636
aF1.8523053990190634
aF21.329156312332476
aF1.6278888497378279
aF2.6399727618114808
aF9.199195420601406
aF1.5030134310088452
aF8.965950217251724
aF1.4854006862685498
aF1.5216907919569151
aF1.0704498787201928
aF4.762444244933663
aF1.800581723301515
aF6.954413652007806
aF2.7480544154695696
aF4.212568589492787
aF4.234956499549957
aF6.03561449592958
aF7.260611298067227
aF6.191485928393152
aF2.727403001395165
aF1.4265920993909644
aF8.213545756216716
aF1.5590151162576704
aF2.1146183740619824
aF4.960835820720112
aF6.53728326668565
aF4.6877369593355604
aF1.5186999242638575
aF54.15677540062031
aF1.3562577760147225
aF17.773709238494426
aF6.788741150888776
aF4.0625157129477
aF6.820677284267438
aF2.7630837504972274
aF3.7799515463925513
aF1.0358226574465066
aF1.8566785084353081
aF1.0607525217399605
aF3.8158105849697117
aF8.39234518474716
aF1.6757108402371885
aF3.444371128420258
aF1.3299886644804375
aF1.5844152683632304
aF10.729321040027138
aF1.3906889663071296
aF2.2742928940041116
aF3.1522346218904236
aF1.4832225499416098
aF2.3601877098427
aF1.876872852034924
aF2.3580986480202784
aF6.543992843504239
aF5.0650316593459594
aF3.3692291035520645
aF1.094218627004318
aF2.909121774710274
aF8.875795986468546
aF31.114470450055407
aF1.2620189351737992
aF6.625828017370295
aF1.362283255635692
aF3.703064331409302
aF7.271716471866898
aF14.745042770708146
aF1.368867854218371
aF3.7026832147809756
aF8.49052247649305
aF2.0526710932948937
aF1.8216087076754135
aF3.1596563420760884
aF4.337400703529678
aF1.2293150304168659
aF3.5683108896168996
aF1.3306945212727141
aF5.920880949857936
aF1.9514395240745184
aF2.966503117090515
aF5.692747522477106
aF1.1708597322344425
aF4.178436509923673
aF1.1020822128000374
aF2.397629118525756
aF1.4951269358282762
aF2.942264085007197
aF4.233788599770867
aF2.346992239360423
aF13.122668125825717
aF3.0181250155100066
aF1.9412617889256927
aF2.3333013395250255
aF2.6044276296862265
aF3.377095607213947
aF1.5803284797079244
aF7.023943769635867
aF3.3331242141108763
aF1.1669076693362197
aF4.173371344877004
aF8.200204574900033
aF1.332765064575831
aF8.884298654327948
aF1.8935427487131993
aF2.662045315813575
aF2.1763283909879183
aF21.334928113405017
aF3.2676173611733024
aF6.08918408837188
aF1.6531388205360145
aF2.6484270089300357
aF1.3261372490416647
aF4.079388125080859
aF5.710999001246726
aF5.610942700622049
aF10.543934699589272
aF2.9089424795346694
aF2.4598282293272824
aF2.6591225747576357
aF1.635477941797108
aF2.299514127459796
aF9.292361290935686
aF2.0991952350237457
aF9.921170975360921
aF1.766714888551396
aF4.458917091852133
aF4.284461112045984
aF6.118894758818641
aF3.0478936620287613
aF43.68814712904452
aF5.883811637942956
aF1.7220326643434059
aF1.534649142362668
aF8.645750775377813
aF1.2517804088821778
aF1.8949647755377328
aF1.8184918627299482
aF1.3546955737316668
aF2.3160857593018753
aF13.36073260965781
aF1.0345606484732162
aF7.067283459492223
aF3.9986087488157795
aF3.692409438385173
aF4.8483370115347215
aF5.003083631487057
aF1.7254332625817426
aF10.097915205583424
aF5.123945426610192
aF3.4654633544776097
aF5.367183063333516
aF2.425469326384241
aF5.054728332722399
aF3.814813430108454
aF2.381484644398786
aF14.306202794593306
aF1.4372134850014096
aF1.9959950460423743
aF18.60518391103374
aF2.899750495037928
aF4.574816929901745
aF2.6178916180471816
aF6.999420154473944
aF1.57173536710876
aF3.642349698757762
aF5.509001445895302
aF6.609246848451856
aF2.589147124160453
aF2.685603580201923
aF1.400362007030144
aF3.3690838103839966
aF6.11818267984143
aF1.0933825016982865
aF2.5460639266673875
aF1.7052878061589651
aF1.5312414834166514
aF1.3999246902738927
aF2.941818659446939
aF2.244880367408346
aF1.5225193198720328
aF18.681616776903045
aF7.7674509297551335
aF16.021417837864167
aF1.5435078632352117
aF6.593215517041867
aF1.4385760153972271
aF1.9115144059833669
aF1.6679210212359106
aF11.477116705024311
aF8.378240052074277
aF4.912930311504956
aF3.704530919155934
aF52.07737920497775
aF2.2004193854252723
aF1.3828168508968586
aF3.252242085108981
aF1.6952863768725017
aF7.290988604358487
aF13.036642839408945
aF1.8150020100715745
aF6.957389255969239
aF1.800763238287422
aF4.186468120063409
aF6.135455562752829
aF1.1569241573494313
aF1.5208962965088584
aF3.3641923847816435
aF1.6256432478404097
aF3.4978075723798243
aF3.1862860294365563
aF1.5659916392663045
aF2.2595508282188725
aF3.3446445216742586
aF1.6814330077640538
aF1.09127322206809
aF3.331675018204129
aF3.572249111974884
aF1.0422010782654598
aF4.090459939504554
aF1.1703169076721718
aF1.6701358085220082
aF2.0963431366164924
aF1.835915697633372
aF1.1981195552608679
aF1.876950141006955
aF1.8057502974372877
aF2.190499816079361
aF1.2765233852131892
aF13.630269723586595
aF1.7049959200360036
aF2.162579162204912
aF1.3027727280431223
aF2.220133440519009
aF5.371489469096393
aF4.898622405498733
aF1.3804935466996104
aF14.242722938627525
aF2.506840969341747
aF3.953499829255838
aF4.149215647759346
aF2.1244754319106742
aF7.017774559348502
aF1.2864025026810197
aF2.600160616035105
aF1.862456281980736
aF3.640616138891826
aF15.180715760151118
aF2.0715500336905337
aF11.117975897596967
aF1.2142169030731043
aF1.5702938933833803
aF1.1154319594276088
aF2.450179208320034
aF2.8013047844781185
aF1.8069522431309737
aF1.1947725427699492
aF2.9313829381084964
aF12.682232816451474
aF1.818904045057767
aF12.200438919050432
aF1.5597726525905216
aF13.303343992486134
aF6.068517827368397
aF5.7249409374126765
aF2.5620379633913606
aF16.74019654469566
aF2.1539890223079503
aF2.148955455191232
aF4.767726569197857
aF2.0516855570474375
aF2.927419295457023
aF4.806425041804421
aF12.18007973242174
aF2.157914559192479
aF4.526287900727264
aF4.439721998282915
aF2.179329440497913
aF2.5747679019672787
aF19.98158870262839
aF3.1286606564479778
aF2.4494897167015157
aF1.3657350147574419
aF2.4796913774052793
aF3.4444679100340414
aF9.464689662109919
aF6.948549735782459
aF1.7393819057691253
aF2.073876867801724
aF6.324521242341907
aF1.2186215197637726
aF6.511863585805757
aF1.9256904813261886
aF2.293498379485786
aF1.5517620102852703
aF4.5754337957514295
aF2.3790612153709008
aF5.192849841137694
aF3.682163674385442
aF7.558891420662901
aF14.145025745781249
aF7.453839655025053
aF2.0373467975772575
aF1.375563822335846
aF1.7263655748068392
aF2.896852280487942
aF3.5344135704922235
aF3.5076436190629647
aF3.850102121618643
aF2.6711307151172683
aF12.508081911951562
aF4.88646494206362
aF5.128858313152351
aF3.8966754449410472
aF5.2120598522054715
aF4.938790066327459
aF14.655333230783336
aF10.111048174984177
aF4.315311485674679
aF1.1838365037896543
aF15.106676193933467
aF6.251978581817059
aF3.9653215568080373
aF4.277611466532753
aF2.1188503205427294
aF4.875844244377136
aF3.9589048180218134
aF1.6128003450983377
aF2.9422298070294457
aF2.662155179694473
aF4.48478321164742
aF5.057662301874624
aF2.042306883056497
aF1.6424964214649793
aF9.211984708522044
aF4.653706998753899
aF1.9725225629273682
aF2.2704832158935244
aF5.807967493315219
aF3.4203403180241194
aF3.383542336986226
aF2.692935534143847
aF1.128191213933943
aF1.4412948722489107
aF2.6151274352670684
aF1.7967822700590876
aF2.380705000424853
aF4.04037344235212
aF1.228994603090876
aF17.775004956861892
aF11.77230736743144
aF2.859816651830092
aF3.4300307130019494
aF8.766963183769505
aF1.3406585452953481
aF1.6935872467217443
aF4.252851137260119
aF3.2601778593976407
aF1.623135159371138
aF21.049254298730137
aF1.9811967186533588
aF2.3138161310590095
aF2.009461318321459
aF1.5415409461993395
aF3.2067909395168273
aF1.672583758562861
aF19.960058148504455
aF2.8885565978954597
aF1.2482515638249994
aF1.164503620130971
aF4.730147871533857
aF6.9200308920791205
aF1.7581319318402542
aF4.485410969185373
aF2.8436775404274957
aF4.926167126474658
aF9.63654506037199
aF3.8357245037545686
aF4.108255979780761
aF8.171747817595518
aF4.630624225125161
aF3.185836667270109
aF1.9195480914914167
aF9.115434532631314
aF3.3733282185466926
aF4.436048043332864
aF4.844987034418243
aF1.3618877257252284
aF5.560388091541987
aF4.730246277562826
aF2.376687828944118
aF1.4599504105448131
aF1.1155103300466773
aF1.5814207607187027
aF5.179829865661905
aF3.5640708410467954
aF2.0864787762457406
aF6.759516384458086
aF6.6988153316680314
aF9.178459408651474
aF8.533295858489527
aF1.3822741003495096
aF2.6764056803085334
aF1.6188439990576102
aF3.4054586184630566
aF3.2735777149774945
aF1.569595093400868
aF4.29391745395038
aF3.342705059614323
aF1.1429216161867262
aF16.253767243878027
aF1.8605659764652471
aF1.6994787467477563
aF2.4289123897623246
aF1.6488129336110535
aF1.3404133297721974
aF7.7524897974067475
aF3.972776462706488
aF3.905174605899996
aF1.5902088974504738
aF1.6247084284554314
aF2.5948962719616393
aF5.172001168426878
aF2.773245616536119
aF2.679248178518776
aF1.3198161716231607
aF7.168683001595212
aF1.4245478842902457
aF2.0696981706239432
aF1.9282748416859616
aF2.6354570281004768
aF3.020029104467003
aF1.105211923257502
aF1.4297556327420125
aF13.048960763370527
aF4.404203292455557
aF1.993424400257294
aF1.566259595396918
aF1.3763064765036819
aF5.346424745225899
aF2.0184542719302847
aF3.8555692077071964
aF1.4843122991153694
aF2.9156752317627768
aF14.052572550248623
aF4.7266838458183305
aF11.519311652412794
aF1.2313561315203054
aF4.256530880642134
aF1.6876108359898936
aF5.818912246167641
aF9.932635840742378
aF18.686934574589632
aF2.0092479645945347
aF4.142912827892843
aF1.1577023922968241
aF2.9245812894960346
aF3.567877962659991
aF7.817969212037804
aF3.49554040708006
aF1.8526612265497358
aF1.140288087397554
aF9.205706592994702
aF2.178409096823529
aF2.015683609622758
aF11.36898060696051
aF1.715198326734991
aF6.902676342197282
aF2.4868966106710717
aF2.0353595359745635
aF5.642172688137848
aF4.455072150573551
aF20.074762677598322
aF2.4515529269960386
aF6.692920073210684
aF2.00084177266607
aF4.396572865310737
aF1.9049470948502294
aF1.8762963828221242
aF4.705725258423335
aF1.3592078552270412
aF1.1147634808406095
aF3.593981095825113
aF2.0327348297552965
aF5.6336822622901
aF1.0975242008643948
aF1.9250991424676078
aF11.643917932746675
aF2.6412638875393055
aF1.6833473759681972
aF1.5403919522452072
aF10.194819028783165
aF2.478235123982778
aF1.9378901199576857
aF14.614871396605945
aF3.7239507054674044
aF4.955223497640162
aF6.336246686916841
aF1.2266498802839718
aF1.4026592778378055
aF12.235051649956857
aF1.2181525332226313
aF5.844311068739577
aF3.5939159280007873
aF1.7504714203421416
aF3.7309596188085195
aF3.3171626511457792
aF9.119222598475536
aF4.578689763257148
aF1.9670484918749256
aF6.885438113316969
aF3.2685393028392897
aF1.5433076307485856
aF1.3713826737604342
aF14.776009389236208
aF4.14307061881215
aF1.6333862811340658
aF4.596592329802749
aF12.95561485200709
aF3.2868477487000756
aF1.1106824466202765
aF2.12939261954692
aF13.124840656699979
aF1.2365176192295455
aF5.143581468842404
aF3.24811773217033
aF1.2451909886983734
aF2.9090942516450946
aF1.9098358663867596
aF2.422762803739383
aF2.7380629004594983
aF10.895171813039891
aF3.70286385108079
aF12.898863809858119
aF10.768036119715072
aF1.9518257824768819
aF1.0716377007811018
aF1.64737012832842
aF9.688686320504424
aF3.4030160417985753
aF5.214994030109455
aF13.854286193997357
aF4.039395698582121
aF2.464844062812213
aF2.028850841854337
aF1.2973188101012436
aF3.7538613690417866
aF1.860925879244364
aF7.870965183656464
aF5.513431724418091
aF4.227054383955808
aF1.828008709392652
aF3.9100151624279267
aF8.22418882519024
aF4.799695427998256
aF1.381631724085637
aF2.02542957058912
aF1.2802591583043346
aF2.0241175988458644
aF6.410949828509368
aF1.6439422397588075
aF4.23099650920277
aF3.7976857701722313
aF2.9648765646739137
aF1.9322290370834498
aF2.0860364418522175
aF11.266418749357651
aF1.5751024169853627
aF10.223102225347771
aF3.0802677014242588
aF2.6946053617142165
aF2.4669367661497517
aF1.5500534152406937
aF2.9351306829802453
aF27.596628367563792
aF3.9860424138423345
aF3.0878958983423908
aF3.4598131555562075
aF5.9803551374737065
aF1.0166064237376105
aF7.824322943931857
aF3.294014685142511
aF1.219598901659331
aF8.49556291024705
aF1.9879380327143652
aF2.8986268062243603
aF1.2097243118901413
aF1.4921782486654807
aF4.468111115501907
aF1.4299669145916833
aF4.734115235149804
aF4.099267742339565
aF1.9062408605169214
aF7.215423712339662
aF3.209583651357879
aF1.5709457845812314
aF14.524542353382763
aF2.485749131434849
aF2.405544485201219
aF2.4074123747551837
aF2.2769268264155715
aF2.4834241084070854
aF1.5505474269944826
aF3.6873614056490442
aF1.570281488074706
aF3.716523542072926
aF3.8943994221939384
aF9.845719957489909
aF2.19554753924797
aF2.1230776601665786
aF3.3159874578662483
aF3.6893899718039607
aF2.6571201780308016
aF4.707651128866697
aF1.5613928395374372
aF1.9064850851212565
aF4.552174447614127
aF2.1160939549978264
aF8.12993212079579
aF4.341727309456517
aF1.335664448148195
aF4.119843694628522
aF2.8445412654264395
aF2.139100607167197
aF1.8482910665397774
aF2.4597304201648806
aF2.626013792430159
aF4.335516500816197
aF2.2120580273119534
aF12.697468640919235
aF3.5393123253243552
aF13.100778604830472
aF1.2212087085058332
aF1.449937291820895
aF1.9418094722209387
aF1.244286971423947
aF3.792379762940235
aF1.1583725118585901
aF5.2958539785273295
aF1.0652495785784222
aF6.499674616201836
aF29.410327533098677
aF3.152666133908745
aF3.5919958614921383
aF6.036153608085872
aF3.8681084997933164
aF4.707927697800214
aF2.695341737607582
aF2.2282461038751307
aF5.492062397794137
aF1.6219809935798555
aF5.201130857806461
aF1.9635914973353399
aF12.895699751827275
aF3.266445288673353
aF1.3249000495168406
aF3.3825227439385976
aF2.911233911556415
aF3.3787148270521117
aF1.3530649824076222
aF1.4408413096209132
aF5.037271721191999
aF23.077483968232496
aF6.30026360637587
aF85.20080249795345
aF6.5485300245850535
aF1.1206490418427737
aF3.2319338280078256
aF2.0526919695574275
aF1.1602457073908856
aF5.97758233188042
aF5.736659675382712
aF3.0868932082757983
aF1.640973411934798
aF3.2984454601611475
aF2.5696373361066223
aF2.0018275984520186
aF14.358896675350127
aF3.333499282459975
aF1.5760561673680802
aF10.228582556810206
aF3.7445541217410097
aF3.4233175330903034
aF7.528680017175557
aF3.2819385163550887
aF2.743229065168273
aF4.003856777107366
aF1.6091666052773932
aF3.575455919958077
aF2.5668767309892924
aF1.6266642695164177
aF3.7190160400295027
aF3.5764342139931165
aF2.2989671427194254
aF10.157676951015286
aF2.1812351419052693
aF8.18470727725768
aF3.6964166416767434
aF5.185422528811916
aF2.6325100345205104
aF1.7616184917720863
aF5.142993257973786
aF2.467418858223996
aF1.1109353645928044
aF4.090106228663015
aF4.415606486740706
aF2.4671860649701176
aF1.987913455850022
aF1.6160974919588533
aF8.525719477018121
aF2.6750256137388204
aF4.148593976207737
aF1.749235377811483
aF1.8068833302037204
aF3.174870859879051
aF3.3870977888176452
aF14.628579143776175
aF2.71767998154313
aF1.6177868810853966
aF3.911514135827034
aF17.506508507420257
aF2.7856019757152164
aF1.212679076821594
aF2.3446940324757315
aF1.9805764496572371
aF1.0352218765637604
aF5.370855163350847
aF7.697874683710267
aF1.5700640790853087
aF4.432898827520361
aF5.238528254746869
aF4.36394641924914
aF1.2050822658588192
aF2.0547149899604706
aF2.632341902686686
aF1.342241997329597
aF1.406213442626916
aF2.5860009774100003
aF3.220385544683426
aF6.209038981238056
aF3.7669514994475195
aF1.8667628924996427
aF3.0050748211785048
aF1.6412755879202081
aF3.3999071494910886
aF1.480836454971728
aF2.1610192109432487
aF6.003636508265255
aF3.0776515129739135
aF2.934333096631714
aF7.0149755144290395
aF1.7133104461606743
aF3.291029192200559
aF3.274844041696645
aF3.944672394242178
aF2.0703490167767433
aF9.21095669528489
aF1.812857713854923
aF1.8582580325376201
aF2.2289319480785754
aF1.8859237770225437
aF14.111205415760557
aF3.1227924257683353
aF2.1125002919723013
aF4.7753758968677325
aF10.49616470480066
aF2.640774928058422
aF6.193679451329661
aF2.5423201040616448
aF7.831037810227008
aF6.1270161372566
aF1.0977433383721453
aF1.459736133915715
aF2.400282847507508
aF1.320275006097284
aF1.5771231156111534
aF8.572056088825681
aF4.114286953662231
aF1.6910739493181066
aF5.6479881224740875
aF16.218508318373086
aF2.4974519392395043
aF2.513736958761837
aF27.662232442203596
aF2.416429427175062
aF3.182712107195927
aF2.356802853642818
aF4.566981271638246
aF10.928254627685382
aF4.519065441543574
aF1.5839375598126157
aF4.81683195646871
aF8.757395990344113
aF8.815586638387256
aF1.525667543515472
aF1.0234435965155422
aF5.048884535252798
aF19.766620980581376
aF5.491236000397723
aF7.873080732404582
aF1.5911115826983504
aF1.7040388116141747
aF31.903799593285417
aF5.20835095048302
aF1.8870967953698268
aF1.8341199628891522
aF3.4218233253736177
aF7.996308704548729
aF1.0957335766597938
aF1.042939430953359
aF2.7852230924754844
aF1.8984034617605008
aF1.9070471867639793
aF6.226698320255051
aF14.533525592317988
aF1.9493510184709226
aF1.06530064313328
aF3.122252384156067
aF6.021787877758935
aF10.218174826690055
aF5.254897903161973
aF4.130485508913272
aF6.86460850600834
aF4.43155002273141
aF1.6216182609232428
aF1.3862153503853183
aF3.523390372726351
aF2.962418011967048
aF1.2495205235853966
aF1.8418337963611924
aF1.6485499388643061
aF1.1070444376727375
aF10.66806207651601
aF6.469304018873978
aF1.0397868389357967
aF2.898970715039909
aF1.9365410749796697
aF3.8176248672155144
aF4.406743560991255
aF1.9294875806637786
aF4.403949353542468
aF3.534478033089048
aF3.7152584722092388
aF1.5118107326128103
aF2.246176605631221
aF1.9560489900541844
aF1.2044766269584464
aF3.1451469784996933
aF5.552523435554537
aF2.241427147115695
aF19.7231513397123
aF2.4126445022848992
aF1.8271339091982004
aF1.9005193689332043
aF1.299643306843251
aF2.7845384497926564
aF4.274961239695932
aF2.0272196391737247
aF1.7074465238485161
aF1.4553283959827374
aF2.97364846854533
aF2.104015826424423
aF3.259286412341163
aF2.34547678734182
aF6.793982489181713
aF1.173154116913246
aF4.0243130337332795
aF3.204126034455915
aF2.66455835986005
aF1.7253433417402946
aF1.2745067187330763
aF1.9011765274128318
aF1.0325422467117167
aF2.1617068942189506
aF2.332710965705898
aF7.2669421292302525
aF2.506638459075168
aF10.157443383747218
aF2.791993424164402
aF4.17293502608597
aF7.493336543105014
aF3.4566210725749715
aF4.247137123984724
aF3.7350235036918047
aF1.0208867836097801
aF10.339912134945337
aF1.1168750401340253
aF1.4383895773041917
aF5.165360013264437
aF3.9136806256494268
aF3.4876248644368455
aF1.7929521353690316
aF3.1731780284286004
aF3.5000101340231202
aF1.477087101594477
aF2.054899355516986
aF1.1103681130553213
aF1.3837640154889428
aF1.6798661626633529
aF2.594772712587902
aF6.050931687055498
aF1.6508149595266388
aF1.8532549786942436
aF7.555409437038273
aF6.238123561235792
aF2.701986845743207
aF14.558296529458008
aF4.771908708913437
aF2.427274947160341
aF1.2656142649793647
aF1.6044933496953075
aF1.7674109138299117
aF2.496097792706575
aF15.659215993264525
aF2.337121495910024
aF2.2178771475509897
aF5.753747390230409
aF6.916124978992069
aF4.399553409515928
aF4.467417244727976
aF1.1339185559725338
aF1.439540479242195
aF1.377608071674814
aF1.2687225237847557
aF5.736582395554436
aF7.874016536622056
aF3.248896059315788
aF7.158766965529854
aF1.4386044910359195
aF1.0742821926569335
aF1.1959151551185443
aF6.08360512668251
aF4.381977356253659
aF1.345561307774468
aF3.002429848101324
aF2.3624310311749777
aF2.966074710069969
aF4.1724725458490015
aF4.822049852914295
aF1.4337825872353587
aF9.053217696494254
aF10.125031425896541
aF2.155495227970671
aF1.675361382752095
aF5.692976912419432
aF6.962128479922146
aF4.929374349310589
aF13.490530143312691
aF4.573734346848068
aF4.152398441529127
aF11.07707028019797
aF7.869646171416675
aF6.240445704721302
aF5.472038920202536
aF2.354027324116803
aF21.087974600838283
aF2.901134725962168
aF1.1832428733321345
aF11.508707738403224
aF3.8904139545560383
aF30.42071322195977
aF1.5516596006652417
aF3.46768419851992
aF3.42510749109222
aF5.479477479245506
aF2.101919699081022
aF14.536595989838926
aF1.488350261416296
aF1.4285884415718426
aF2.6015850971746723
aF4.174108138384645
aF2.3903082703477536
aF2.1364799411367
aF4.461945538186607
aF2.994844369348212
aF2.1464915157114683
aF1.4292329878863161
aF3.2295384315618048
aF1.9742966414746042
aF2.364762988511755
aF1.170166803366015
aF2.004412047582346
aF6.0574604544633255
aF4.48237064109146
aF2.195153335072846
aF3.119650694394249
aF8.274300259672977
aF1.9202196114538763
aF1.0632003087636739
aF3.698386946606982
aF4.329761253306117
aF1.435324449241933
aF1.6819368682328009
aF1.9340647110128009
aF28.83790210048639
aF8.195833853885555
aF1.8472836200795513
aF5.103953886858058
aF3.5550036584697704
aF10.122535184922873
aF1.4533351387416373
aF1.0628773602372157
aF4.319995660029829
aF2.0919876149728616
aF1.8800961697274226
aF2.038067034035169
aF2.672364091896369
aF4.310206326699077
aF1.3812745758100509
aF4.5739972092243475
aF2.9536600620617692
aF9.46736650483899
aF2.3682778046802326
aF8.11095332056476
aF1.2823039528725761
aF1.42911852834359
aF3.7300125343655277
aF9.029649693184572
aF3.9506677947176683
aF4.932383532685701
aF2.2357633962312833
aF5.155395204436722
aF2.8671768276608227
aF9.261829078248564
aF2.783170927670317
aF2.975036730113193
aF1.1125575043545872
aF1.3808471107929925
aF3.8093163687471714
aF1.196770700737134
aF5.361407721971215
aF3.03229477672847
aF3.5646477627282454
aF1.4889194372724415
aF1.8478572324353248
aF4.267861965907472
aF2.232676619110302
aF3.342998710163907
aF1.4080571016132337
aF2.4167494985251645
aF1.5049593410004034
aF12.152773343733072
aF2.933645780658776
aF11.894895811256612
aF2.989155007227234
aF6.731596236010129
aF1.720870725089799
aF2.115943316748907
aF1.166698226447946
aF1.315660828746277
aF2.0402024364903797
aF1.779616185876314
aF6.80289769365783
aF4.158354058726004
aF3.117968162074306
aF1.7509684279097977
aF2.116649619754893
aF2.988491953653596
aF6.419876358821286
aF3.1538605948935157
aF2.654558990092014
aF1.0109146042622832
aF3.0722657911159126
aF5.287037576855617
aF1.3925209290692222
aF2.7955145075923578
aF6.996222239437735
aF6.575000465798518
aF1.6020273541768022
aF5.845355079864178
aF3.1296282534901083
aF4.273465215456628
aF6.33679633757938
aF1.2572530934392503
aF1.614509719556487
aF2.204559944105397
aF1.7239803604699038
aF6.540021403751639
aF1.4480328279928374
aF8.561255077168596
aF8.476220241489969
aF6.173165379424412
aF3.739690796877468
aF17.710348249165698
aF18.936307989050608
aF5.225520361316693
aF1.6253773702664396
aF2.42105879816916
aF2.4787982816810685
aF2.3958359737802035
aF4.903315937972023
aF2.900270036846419
aF47.583584261675526
aF3.2116004550238064
aF7.027838043804186
aF1.8215884683992438
aF3.1647800017867507
aF3.298704510184892
aF4.538984766337501
aF1.9609906327425652
aF1.250708344444916
aF2.2093765079934675
aF1.5854793651018326
aF10.276643274277017
aF3.085655281266123
aF1.6513021751904813
aF1.1815362603546793
aF1.4311636621496973
aF1.1189784039172281
aF1.5090253723359044
aF3.3245705364098552
aF1.6886763640621707
aF2.139841112277554
aF1.361531730207409
aF9.406581389591611
aF2.152991057397827
aF2.3498738533643495
aF1.6567622729327052
aF1.8021258120079973
aF2.1960753544534546
aF3.7323449292318474
aF7.695305884002143
aF6.206555486750553
aF3.4216445015795522
aF5.209156031486597
aF11.412754088877936
aF2.9795651357527175
aF3.411481428530226
aF5.01834891642259
aF1.4164256325606894
aF3.0130274715682064
aF10.099273979750656
aF4.113711149706014
aF1.359735400448678
aF2.3441250023299753
aF1.365609135767658
aF2.234801306356593
aF1.293249421166948
aF1.8622970436050823
aF40.788062038155644
aF3.1724570482288557
aF2.0008630310413076
aF2.534474085900854
aF1.784120403798133
aF1.2636655201441145
aF1.536357394745394
aF2.8787450856060883
aF1.3078734137887216
aF1.8873868735029875
aF6.268499837107363
aF4.2756687591351605
aF2.3363640077319747
aF2.649064801499478
aF1.957711601952904
aF5.090060972408079
aF5.56653886166183
aF5.1609343003829915
aF5.285361745346834
aF8.149501948875352
aF2.0375654713097404
aF3.751262652140927
aF3.929492371643791
aF12.673525425643684
aF1.6517708306873318
aF2.1144148851397384
aF2.235149449877794
aF6.940271762938974
aF8.609508175736034
aF2.4224366359864447
aF2.0014270536499765
aF1.7680186812927536
aF1.5768713841238438
aF2.6934107356631265
aF33.98284466216864
aF8.338632206499929
aF3.0641801230879824
aF2.707317179613371
aF1.3332246441952174
aF5.877741943977631
aF8.071375177010783
aF1.2000529752620914
aF2.759379962252431
aF5.8225510564698135
aF2.5806979517038635
aF4.47340427304974
aF8.939431726872533
aF3.3168254103932537
aF2.507296253800081
aF1.9902517365881733
aF3.058897292023661
aF2.6747700004086465
aF1.2185509868151903
aF3.1587954610452096
aF2.7014728762489497
aF3.606160751780989
aF6.474918608322322
aF5.6792185293987885
aF4.504770508823162
aF1.894238621498914
aF7.175321568020643
aF5.985640033776148
aF2.37219251838905
aF2.790184125858622
aF1.486356029627259
aF5.653626921051086
aF1.3028725153619118
aF8.099523487251767
aF3.4093522351975722
aF3.535615564861523
aF3.9851999217569825
aF9.367006489347968
aF4.757829841404661
aF3.736657393952705
aF22.101905261550858
aF11.479303980209437
aF3.7436700547646975
aF1.4943272562594403
aF4.755060528098097
aF4.640893703884351
aF11.34233723140266
aF1.5865551550835615
aF2.3533044704741313
aF2.033253938834424
aF1.2810760448730798
aF6.054800929165028
aF3.707979943971426
aF4.290739090012976
aF2.384876636290138
aF1.0783213503974964
aF1.77930753387034
aF1.4450659594120268
aF2.17015875272397
aF12.760813514082146
aF4.711271054869494
aF2.678017233653193
aF2.001765377239847
aF4.5243596845751615
aF1.2703246583307821
aF32.890492721360424
aF1.3175667932602437
aF3.095061051396006
aF9.867996051533403
aF1.2320469480109824
aF1.7673016512220354
aF2.84213982009356
aF1.979493179537444
aF2.582267162772814
aF2.656667871183287
aF1.3486485229894658
aF3.536592690646876
aF1.1300423255660161
aF5.611799015661886
aF1.439253704936575
aF7.032387538357674
aF8.408362823106668
aF3.1563792664191896
aF1.1509246491988636
aF1.9038224430108814
aF2.8888046330143733
aF2.4461583660333543
aF1.6786243793195514
aF2.060110413822864
aF1.8710674925459698
aF4.89563921074475
aF4.087935214015521
aF1.8983875615194277
aF1.447270684472561
aF3.5135434936344945
aF4.919843539912869
aF1.9675448422106019
aF1.1740027232272934
aF4.936594116370204
aF5.213300413725764
aF1.554620565363162
aF1.9296028704040666
aF4.672880836946719
aF1.679220719033396
aF1.4426933348772573
aF1.0809645247938584
aF1.3181463690880812
aF2.2789062666943596
aF16.56415525234886
aF4.172631455223232
aF2.357749518376341
aF2.5505074273016852
aF1.683563592119919
aF4.347137567070444
aF1.0376282256450056
aF4.684534141294318
aF1.8401903871440144
aF2.8006820685574887
aF3.336863307200211
aF2.0942017767691685
aF5.766786709408276
aF2.181401768773007
aF4.241076894790661
aF1.8920945031991416
aF1.0665615983173955
aF1.2653944830209853
aF2.2299364693301524
aF2.27064168676374
aF2.303774726472024
aF2.8336455277577612
aF11.056405997318851
aF3.9292769011095734
aF1.8456951879974641
aF3.016491463212908
aF5.490305648914681
aF3.175626424208948
aF10.48394589255655
aF2.6570783827501008
aF1.6375599438053692
aF1.6548397533477364
aF9.909803641440105
aF1.9053971863687955
aF10.110546960551465
aF1.974691747349308
aF13.127637958627297
aF1.9168624593092003
aF3.595698848561928
aF7.422629776386787
aF5.306767619750507
aF2.150679798212101
aF8.83502191259502
aF4.070717470744294
aF1.7919543931744666
aF1.5186447515474972
aF3.493050323698924
aF5.933234607018808
aF35.46482453419087
aF4.558173150415604
aF1.756160444646374
aF2.5950024082025136
aF1.5142557206822056
aF3.9654689049243195
aF1.0751419056867668
aF4.332500257886322
aF6.011842473509597
aF2.1602447051638936
aF1.812761106706316
aF2.6442053664001453
aF1.0899128789093575
aF2.4726687708762762
aF3.0698543330026244
aF1.5087941280121115
aF3.463177723624424
aF6.051167131057344
aF13.85266769710244
aF1.9042420591802172
aF5.659225054544367
aF4.202015308502769
aF3.8052843163082875
aF2.2263312950027907
aF3.058527026985752
aF1.8996501037940168
aF6.321332303924491
aF1.1209026497461934
aF1.311879028039683
aF3.490186140856279
aF2.6230524315562813
aF1.152530492473726
aF1.5315148094267907
aF1.434514538757849
aF1.2155982221496417
aF3.592648617206846
aF2.0103580845034084
aF2.551135695600613
aF1.484772847386597
aF1.3975811264076594
aF3.419597784846245
aF2.6762156205013565
aF8.035964975026145
aF9.311887653413944
aF2.233507353047129
aF7.735649602039258
aF10.918282153395635
aF2.415749576146432
aF3.382900463465551
aF6.075229950840647
aF3.0478807213443173
aF2.4516230851767937
aF1.2845741591289621
aF1.9938243970576488
aF3.7003487895011737
aF4.728794566014194
aF1.49989816077688
aF8.002785531614071
aF1.359790487290522
aF1.6541371825931357
aF1.4763383278432665
aF2.217872601810345
aF5.169506148508421
aF2.091050756597239
aF21.80336855167431
aF1.1309777576308728
aF4.00536424224561
aF11.968345421206507
aF1.7937270581618605
aF5.777801434742451
aF1.256201048995516
aF2.2063324532498876
aF5.217952967071448
aF3.4684272898206774
aF3.602170056316843
aF1.1979963170492487
aF2.128684227067337
aF6.340562080968603
aF1.2511977878432845
aF4.770755278377832
aF1.0871031416355017
aF6.186478036452769
aF1.6629160319056882
aF7.006149785604246
aF4.286317395620787
aF4.951995916223985
aF3.012079021769903
aF11.957536601668249
aF1.7855267317834365
aF3.7787789801495597
aF4.0055806514252
aF43.57218979718019
aF2.436127884849051
aF1.4673507217142496
aF1.5566049512064284
aF4.200229514240648
aF1.6317414203818281
aF18.868266182937425
aF5.66776930192982
aF12.879059398965348
aF3.444613745347494
aF10.031155308636157
aF5.583842691049096
aF4.057221396312214
aF1.1201504072187465
aF5.185476151221301
aF3.133666455959232
aF1.0756727714941652
aF8.563861778674038
aF2.3193362570244873
aF1.4432153012697326
aF2.3794484785419128
aF1.936956138353727
aF5.247235771858639
aF2.1348534841848195
aF6.112481598488457
aF3.9480557917161807
aF3.398626025329959
aF1.4154319206414143
aF40.7045982824094
aF5.280252324901788
aF1.0952071149483358
aF3.0886718708412157
aF7.623075433316271
aF2.4492937468715343
aF1.4875440621765463
aF1.5787990516454171
aF2.0271985096149363
aF5.686085068518632
aF5.484478494357347
aF9.342002476366732
aF1.2835254188879162
aF1.6936841786659613
aF1.718246921050837
aF2.4655651515317474
aF1.24655849159903
aF8.816227994371014
aF5.394491352952145
aF2.2694831177898713
aF1.9444429764778655
aF9.797796404751747
aF1.0473201361815336
aF5.910466863731028
aF3.496310744364307
aF7.750367900616869
aF4.166007362408139
aF20.58197244379982
aF1.5816086165073906
aF2.8674674842995977
aF6.145896964597091
aF1.3095327515326796
aF2.06499826539027
aF13.369071766632723
aF1.0621758937410715
aF1.3511495467573242
aF4.323148655912893
aF1.5749177132920231
aF2.7363817398544064
aF3.8480093212673068
aF1.5819667189820394
aF26.292913681926194
aF11.84223859202266
aF1.7024550327089143
aF1.7679327720487026
aF1.0874488740847212
aF5.5968844261109085
aF1.2624614290949359
aF8.338255819872261
aF2.993232974736652
aF1.3397934686671054
aF2.557546090024342
aF13.13328123984102
aF1.102927377240672
aF13.098068250871524
aF4.904797915173069
aF3.767303824465322
aF1.3374076533734298
aF1.9979726746255366
aF4.209605977826209
aF2.5450590498913104
aF2.6063584594939293
aF8.891161842947552
aF2.2708867501311323
aF3.273772374547702
aF3.116430033040051
aF5.369388118554243
aF1.501714123469914
aF4.207649408625828
aF2.143187188253373
aF3.044282103646031
aF1.3535632123695471
aF4.315086465588435
aF1.9825240044058319
aF1.4225840779196868
aF26.529889972600206
aF2.039056788151981
aF8.801282164669221
aF1.9760392998557292
aF7.157436563368193
aF1.699740298163915
aF3.4248653539016307
aF10.993085369012087
aF1.2857587670964044
aF1.497830846784604
aF4.24046788927422
aF3.1714603873773157
aF1.920621045311687
aF3.3124115558979486
aF1.052138157084488
aF8.044875806991751
a.